
encrypt_file:     file format elf64-x86-64


Disassembly of section .init:

0000000000001000 <_init>:
    1000:	f3 0f 1e fa          	endbr64 
    1004:	48 83 ec 08          	sub    rsp,0x8
    1008:	48 8b 05 d9 3f 00 00 	mov    rax,QWORD PTR [rip+0x3fd9]        # 4fe8 <__gmon_start__@Base>
    100f:	48 85 c0             	test   rax,rax
    1012:	74 02                	je     1016 <_init+0x16>
    1014:	ff d0                	call   rax
    1016:	48 83 c4 08          	add    rsp,0x8
    101a:	c3                   	ret    

Disassembly of section .plt:

0000000000001020 <.plt>:
    1020:	ff 35 42 3f 00 00    	push   QWORD PTR [rip+0x3f42]        # 4f68 <_GLOBAL_OFFSET_TABLE_+0x8>
    1026:	f2 ff 25 43 3f 00 00 	bnd jmp QWORD PTR [rip+0x3f43]        # 4f70 <_GLOBAL_OFFSET_TABLE_+0x10>
    102d:	0f 1f 00             	nop    DWORD PTR [rax]
    1030:	f3 0f 1e fa          	endbr64 
    1034:	68 00 00 00 00       	push   0x0
    1039:	f2 e9 e1 ff ff ff    	bnd jmp 1020 <_init+0x20>
    103f:	90                   	nop
    1040:	f3 0f 1e fa          	endbr64 
    1044:	68 01 00 00 00       	push   0x1
    1049:	f2 e9 d1 ff ff ff    	bnd jmp 1020 <_init+0x20>
    104f:	90                   	nop
    1050:	f3 0f 1e fa          	endbr64 
    1054:	68 02 00 00 00       	push   0x2
    1059:	f2 e9 c1 ff ff ff    	bnd jmp 1020 <_init+0x20>
    105f:	90                   	nop
    1060:	f3 0f 1e fa          	endbr64 
    1064:	68 03 00 00 00       	push   0x3
    1069:	f2 e9 b1 ff ff ff    	bnd jmp 1020 <_init+0x20>
    106f:	90                   	nop
    1070:	f3 0f 1e fa          	endbr64 
    1074:	68 04 00 00 00       	push   0x4
    1079:	f2 e9 a1 ff ff ff    	bnd jmp 1020 <_init+0x20>
    107f:	90                   	nop
    1080:	f3 0f 1e fa          	endbr64 
    1084:	68 05 00 00 00       	push   0x5
    1089:	f2 e9 91 ff ff ff    	bnd jmp 1020 <_init+0x20>
    108f:	90                   	nop
    1090:	f3 0f 1e fa          	endbr64 
    1094:	68 06 00 00 00       	push   0x6
    1099:	f2 e9 81 ff ff ff    	bnd jmp 1020 <_init+0x20>
    109f:	90                   	nop
    10a0:	f3 0f 1e fa          	endbr64 
    10a4:	68 07 00 00 00       	push   0x7
    10a9:	f2 e9 71 ff ff ff    	bnd jmp 1020 <_init+0x20>
    10af:	90                   	nop
    10b0:	f3 0f 1e fa          	endbr64 
    10b4:	68 08 00 00 00       	push   0x8
    10b9:	f2 e9 61 ff ff ff    	bnd jmp 1020 <_init+0x20>
    10bf:	90                   	nop
    10c0:	f3 0f 1e fa          	endbr64 
    10c4:	68 09 00 00 00       	push   0x9
    10c9:	f2 e9 51 ff ff ff    	bnd jmp 1020 <_init+0x20>
    10cf:	90                   	nop
    10d0:	f3 0f 1e fa          	endbr64 
    10d4:	68 0a 00 00 00       	push   0xa
    10d9:	f2 e9 41 ff ff ff    	bnd jmp 1020 <_init+0x20>
    10df:	90                   	nop
    10e0:	f3 0f 1e fa          	endbr64 
    10e4:	68 0b 00 00 00       	push   0xb
    10e9:	f2 e9 31 ff ff ff    	bnd jmp 1020 <_init+0x20>
    10ef:	90                   	nop

Disassembly of section .plt.got:

00000000000010f0 <__cxa_finalize@plt>:
    10f0:	f3 0f 1e fa          	endbr64 
    10f4:	f2 ff 25 fd 3e 00 00 	bnd jmp QWORD PTR [rip+0x3efd]        # 4ff8 <__cxa_finalize@GLIBC_2.2.5>
    10fb:	0f 1f 44 00 00       	nop    DWORD PTR [rax+rax*1+0x0]

Disassembly of section .plt.sec:

0000000000001100 <fread@plt>:
    1100:	f3 0f 1e fa          	endbr64 
    1104:	f2 ff 25 6d 3e 00 00 	bnd jmp QWORD PTR [rip+0x3e6d]        # 4f78 <fread@GLIBC_2.2.5>
    110b:	0f 1f 44 00 00       	nop    DWORD PTR [rax+rax*1+0x0]

0000000000001110 <fclose@plt>:
    1110:	f3 0f 1e fa          	endbr64 
    1114:	f2 ff 25 65 3e 00 00 	bnd jmp QWORD PTR [rip+0x3e65]        # 4f80 <fclose@GLIBC_2.2.5>
    111b:	0f 1f 44 00 00       	nop    DWORD PTR [rax+rax*1+0x0]

0000000000001120 <__stack_chk_fail@plt>:
    1120:	f3 0f 1e fa          	endbr64 
    1124:	f2 ff 25 5d 3e 00 00 	bnd jmp QWORD PTR [rip+0x3e5d]        # 4f88 <__stack_chk_fail@GLIBC_2.4>
    112b:	0f 1f 44 00 00       	nop    DWORD PTR [rax+rax*1+0x0]

0000000000001130 <printf@plt>:
    1130:	f3 0f 1e fa          	endbr64 
    1134:	f2 ff 25 55 3e 00 00 	bnd jmp QWORD PTR [rip+0x3e55]        # 4f90 <printf@GLIBC_2.2.5>
    113b:	0f 1f 44 00 00       	nop    DWORD PTR [rax+rax*1+0x0]

0000000000001140 <memset@plt>:
    1140:	f3 0f 1e fa          	endbr64 
    1144:	f2 ff 25 4d 3e 00 00 	bnd jmp QWORD PTR [rip+0x3e4d]        # 4f98 <memset@GLIBC_2.2.5>
    114b:	0f 1f 44 00 00       	nop    DWORD PTR [rax+rax*1+0x0]

0000000000001150 <fgets@plt>:
    1150:	f3 0f 1e fa          	endbr64 
    1154:	f2 ff 25 45 3e 00 00 	bnd jmp QWORD PTR [rip+0x3e45]        # 4fa0 <fgets@GLIBC_2.2.5>
    115b:	0f 1f 44 00 00       	nop    DWORD PTR [rax+rax*1+0x0]

0000000000001160 <fprintf@plt>:
    1160:	f3 0f 1e fa          	endbr64 
    1164:	f2 ff 25 3d 3e 00 00 	bnd jmp QWORD PTR [rip+0x3e3d]        # 4fa8 <fprintf@GLIBC_2.2.5>
    116b:	0f 1f 44 00 00       	nop    DWORD PTR [rax+rax*1+0x0]

0000000000001170 <ftell@plt>:
    1170:	f3 0f 1e fa          	endbr64 
    1174:	f2 ff 25 35 3e 00 00 	bnd jmp QWORD PTR [rip+0x3e35]        # 4fb0 <ftell@GLIBC_2.2.5>
    117b:	0f 1f 44 00 00       	nop    DWORD PTR [rax+rax*1+0x0]

0000000000001180 <feof@plt>:
    1180:	f3 0f 1e fa          	endbr64 
    1184:	f2 ff 25 2d 3e 00 00 	bnd jmp QWORD PTR [rip+0x3e2d]        # 4fb8 <feof@GLIBC_2.2.5>
    118b:	0f 1f 44 00 00       	nop    DWORD PTR [rax+rax*1+0x0]

0000000000001190 <fseek@plt>:
    1190:	f3 0f 1e fa          	endbr64 
    1194:	f2 ff 25 25 3e 00 00 	bnd jmp QWORD PTR [rip+0x3e25]        # 4fc0 <fseek@GLIBC_2.2.5>
    119b:	0f 1f 44 00 00       	nop    DWORD PTR [rax+rax*1+0x0]

00000000000011a0 <fopen@plt>:
    11a0:	f3 0f 1e fa          	endbr64 
    11a4:	f2 ff 25 1d 3e 00 00 	bnd jmp QWORD PTR [rip+0x3e1d]        # 4fc8 <fopen@GLIBC_2.2.5>
    11ab:	0f 1f 44 00 00       	nop    DWORD PTR [rax+rax*1+0x0]

00000000000011b0 <fwrite@plt>:
    11b0:	f3 0f 1e fa          	endbr64 
    11b4:	f2 ff 25 15 3e 00 00 	bnd jmp QWORD PTR [rip+0x3e15]        # 4fd0 <fwrite@GLIBC_2.2.5>
    11bb:	0f 1f 44 00 00       	nop    DWORD PTR [rax+rax*1+0x0]

Disassembly of section .text:

00000000000011c0 <_start>:
    11c0:	f3 0f 1e fa          	endbr64 
    11c4:	31 ed                	xor    ebp,ebp
    11c6:	49 89 d1             	mov    r9,rdx
    11c9:	5e                   	pop    rsi
    11ca:	48 89 e2             	mov    rdx,rsp
    11cd:	48 83 e4 f0          	and    rsp,0xfffffffffffffff0
    11d1:	50                   	push   rax
    11d2:	54                   	push   rsp
    11d3:	45 31 c0             	xor    r8d,r8d
    11d6:	31 c9                	xor    ecx,ecx
    11d8:	48 8d 3d ca 00 00 00 	lea    rdi,[rip+0xca]        # 12a9 <main>
    11df:	ff 15 f3 3d 00 00    	call   QWORD PTR [rip+0x3df3]        # 4fd8 <__libc_start_main@GLIBC_2.34>
    11e5:	f4                   	hlt    
    11e6:	66 2e 0f 1f 84 00 00 	cs nop WORD PTR [rax+rax*1+0x0]
    11ed:	00 00 00 

00000000000011f0 <deregister_tm_clones>:
    11f0:	48 8d 3d 69 3e 00 00 	lea    rdi,[rip+0x3e69]        # 5060 <stdin@GLIBC_2.2.5>
    11f7:	48 8d 05 62 3e 00 00 	lea    rax,[rip+0x3e62]        # 5060 <stdin@GLIBC_2.2.5>
    11fe:	48 39 f8             	cmp    rax,rdi
    1201:	74 15                	je     1218 <deregister_tm_clones+0x28>
    1203:	48 8b 05 d6 3d 00 00 	mov    rax,QWORD PTR [rip+0x3dd6]        # 4fe0 <_ITM_deregisterTMCloneTable@Base>
    120a:	48 85 c0             	test   rax,rax
    120d:	74 09                	je     1218 <deregister_tm_clones+0x28>
    120f:	ff e0                	jmp    rax
    1211:	0f 1f 80 00 00 00 00 	nop    DWORD PTR [rax+0x0]
    1218:	c3                   	ret    
    1219:	0f 1f 80 00 00 00 00 	nop    DWORD PTR [rax+0x0]

0000000000001220 <register_tm_clones>:
    1220:	48 8d 3d 39 3e 00 00 	lea    rdi,[rip+0x3e39]        # 5060 <stdin@GLIBC_2.2.5>
    1227:	48 8d 35 32 3e 00 00 	lea    rsi,[rip+0x3e32]        # 5060 <stdin@GLIBC_2.2.5>
    122e:	48 29 fe             	sub    rsi,rdi
    1231:	48 89 f0             	mov    rax,rsi
    1234:	48 c1 ee 3f          	shr    rsi,0x3f
    1238:	48 c1 f8 03          	sar    rax,0x3
    123c:	48 01 c6             	add    rsi,rax
    123f:	48 d1 fe             	sar    rsi,1
    1242:	74 14                	je     1258 <register_tm_clones+0x38>
    1244:	48 8b 05 a5 3d 00 00 	mov    rax,QWORD PTR [rip+0x3da5]        # 4ff0 <_ITM_registerTMCloneTable@Base>
    124b:	48 85 c0             	test   rax,rax
    124e:	74 08                	je     1258 <register_tm_clones+0x38>
    1250:	ff e0                	jmp    rax
    1252:	66 0f 1f 44 00 00    	nop    WORD PTR [rax+rax*1+0x0]
    1258:	c3                   	ret    
    1259:	0f 1f 80 00 00 00 00 	nop    DWORD PTR [rax+0x0]

0000000000001260 <__do_global_dtors_aux>:
    1260:	f3 0f 1e fa          	endbr64 
    1264:	80 3d 1d 3e 00 00 00 	cmp    BYTE PTR [rip+0x3e1d],0x0        # 5088 <completed.0>
    126b:	75 2b                	jne    1298 <__do_global_dtors_aux+0x38>
    126d:	55                   	push   rbp
    126e:	48 83 3d 82 3d 00 00 	cmp    QWORD PTR [rip+0x3d82],0x0        # 4ff8 <__cxa_finalize@GLIBC_2.2.5>
    1275:	00 
    1276:	48 89 e5             	mov    rbp,rsp
    1279:	74 0c                	je     1287 <__do_global_dtors_aux+0x27>
    127b:	48 8b 3d 86 3d 00 00 	mov    rdi,QWORD PTR [rip+0x3d86]        # 5008 <__dso_handle>
    1282:	e8 69 fe ff ff       	call   10f0 <__cxa_finalize@plt>
    1287:	e8 64 ff ff ff       	call   11f0 <deregister_tm_clones>
    128c:	c6 05 f5 3d 00 00 01 	mov    BYTE PTR [rip+0x3df5],0x1        # 5088 <completed.0>
    1293:	5d                   	pop    rbp
    1294:	c3                   	ret    
    1295:	0f 1f 00             	nop    DWORD PTR [rax]
    1298:	c3                   	ret    
    1299:	0f 1f 80 00 00 00 00 	nop    DWORD PTR [rax+0x0]

00000000000012a0 <frame_dummy>:
    12a0:	f3 0f 1e fa          	endbr64 
    12a4:	e9 77 ff ff ff       	jmp    1220 <register_tm_clones>

00000000000012a9 <main>:
    12a9:	f3 0f 1e fa          	endbr64 
    12ad:	55                   	push   rbp
    12ae:	48 89 e5             	mov    rbp,rsp
    12b1:	48 81 ec 60 01 00 00 	sub    rsp,0x160
    12b8:	89 bd ac fe ff ff    	mov    DWORD PTR [rbp-0x154],edi
    12be:	48 89 b5 a0 fe ff ff 	mov    QWORD PTR [rbp-0x160],rsi
    12c5:	64 48 8b 04 25 28 00 	mov    rax,QWORD PTR fs:0x28
    12cc:	00 00 
    12ce:	48 89 45 f8          	mov    QWORD PTR [rbp-0x8],rax
    12d2:	31 c0                	xor    eax,eax
    12d4:	c7 85 b0 fe ff ff 00 	mov    DWORD PTR [rbp-0x150],0x0
    12db:	00 00 00 
    12de:	83 bd ac fe ff ff 03 	cmp    DWORD PTR [rbp-0x154],0x3
    12e5:	74 32                	je     1319 <main+0x70>
    12e7:	48 8b 85 a0 fe ff ff 	mov    rax,QWORD PTR [rbp-0x160]
    12ee:	48 8b 10             	mov    rdx,QWORD PTR [rax]
    12f1:	48 8b 05 88 3d 00 00 	mov    rax,QWORD PTR [rip+0x3d88]        # 5080 <stderr@GLIBC_2.2.5>
    12f8:	48 8d 0d 09 1d 00 00 	lea    rcx,[rip+0x1d09]        # 3008 <_IO_stdin_used+0x8>
    12ff:	48 89 ce             	mov    rsi,rcx
    1302:	48 89 c7             	mov    rdi,rax
    1305:	b8 00 00 00 00       	mov    eax,0x0
    130a:	e8 51 fe ff ff       	call   1160 <fprintf@plt>
    130f:	b8 00 00 00 00       	mov    eax,0x0
    1314:	e9 2f 03 00 00       	jmp    1648 <main+0x39f>
    1319:	48 8d 05 09 1d 00 00 	lea    rax,[rip+0x1d09]        # 3029 <_IO_stdin_used+0x29>
    1320:	48 89 c7             	mov    rdi,rax
    1323:	b8 00 00 00 00       	mov    eax,0x0
    1328:	e8 03 fe ff ff       	call   1130 <printf@plt>
    132d:	48 8b 15 2c 3d 00 00 	mov    rdx,QWORD PTR [rip+0x3d2c]        # 5060 <stdin@GLIBC_2.2.5>
    1334:	48 8d 45 db          	lea    rax,[rbp-0x25]
    1338:	be 05 00 00 00       	mov    esi,0x5
    133d:	48 89 c7             	mov    rdi,rax
    1340:	e8 0b fe ff ff       	call   1150 <fgets@plt>
    1345:	48 85 c0             	test   rax,rax
    1348:	75 2d                	jne    1377 <main+0xce>
    134a:	48 8b 05 2f 3d 00 00 	mov    rax,QWORD PTR [rip+0x3d2f]        # 5080 <stderr@GLIBC_2.2.5>
    1351:	48 89 c1             	mov    rcx,rax
    1354:	ba 22 00 00 00       	mov    edx,0x22
    1359:	be 01 00 00 00       	mov    esi,0x1
    135e:	48 8d 05 e3 1c 00 00 	lea    rax,[rip+0x1ce3]        # 3048 <_IO_stdin_used+0x48>
    1365:	48 89 c7             	mov    rdi,rax
    1368:	e8 43 fe ff ff       	call   11b0 <fwrite@plt>
    136d:	b8 00 00 00 00       	mov    eax,0x0
    1372:	e9 d1 02 00 00       	jmp    1648 <main+0x39f>
    1377:	8b 45 db             	mov    eax,DWORD PTR [rbp-0x25]
    137a:	89 05 bc 3c 00 00    	mov    DWORD PTR [rip+0x3cbc],eax        # 503c <key+0x1c>
    1380:	48 8d 85 d0 fe ff ff 	lea    rax,[rbp-0x130]
    1387:	48 8d 15 b2 3c 00 00 	lea    rdx,[rip+0x3cb2]        # 5040 <iv>
    138e:	48 8d 0d 8b 3c 00 00 	lea    rcx,[rip+0x3c8b]        # 5020 <key>
    1395:	48 89 ce             	mov    rsi,rcx
    1398:	48 89 c7             	mov    rdi,rax
    139b:	e8 0e 06 00 00       	call   19ae <AES_init_ctx_iv>
    13a0:	48 8b 85 a0 fe ff ff 	mov    rax,QWORD PTR [rbp-0x160]
    13a7:	48 83 c0 08          	add    rax,0x8
    13ab:	48 8b 00             	mov    rax,QWORD PTR [rax]
    13ae:	48 8d 15 b6 1c 00 00 	lea    rdx,[rip+0x1cb6]        # 306b <_IO_stdin_used+0x6b>
    13b5:	48 89 d6             	mov    rsi,rdx
    13b8:	48 89 c7             	mov    rdi,rax
    13bb:	e8 e0 fd ff ff       	call   11a0 <fopen@plt>
    13c0:	48 89 85 b8 fe ff ff 	mov    QWORD PTR [rbp-0x148],rax
    13c7:	48 83 bd b8 fe ff ff 	cmp    QWORD PTR [rbp-0x148],0x0
    13ce:	00 
    13cf:	75 36                	jne    1407 <main+0x15e>
    13d1:	48 8b 85 a0 fe ff ff 	mov    rax,QWORD PTR [rbp-0x160]
    13d8:	48 83 c0 08          	add    rax,0x8
    13dc:	48 8b 10             	mov    rdx,QWORD PTR [rax]
    13df:	48 8b 05 9a 3c 00 00 	mov    rax,QWORD PTR [rip+0x3c9a]        # 5080 <stderr@GLIBC_2.2.5>
    13e6:	48 8d 0d 80 1c 00 00 	lea    rcx,[rip+0x1c80]        # 306d <_IO_stdin_used+0x6d>
    13ed:	48 89 ce             	mov    rsi,rcx
    13f0:	48 89 c7             	mov    rdi,rax
    13f3:	b8 00 00 00 00       	mov    eax,0x0
    13f8:	e8 63 fd ff ff       	call   1160 <fprintf@plt>
    13fd:	b8 00 00 00 00       	mov    eax,0x0
    1402:	e9 41 02 00 00       	jmp    1648 <main+0x39f>
    1407:	48 8b 85 a0 fe ff ff 	mov    rax,QWORD PTR [rbp-0x160]
    140e:	48 83 c0 10          	add    rax,0x10
    1412:	48 8b 00             	mov    rax,QWORD PTR [rax]
    1415:	48 8d 15 6e 1c 00 00 	lea    rdx,[rip+0x1c6e]        # 308a <_IO_stdin_used+0x8a>
    141c:	48 89 d6             	mov    rsi,rdx
    141f:	48 89 c7             	mov    rdi,rax
    1422:	e8 79 fd ff ff       	call   11a0 <fopen@plt>
    1427:	48 89 85 c0 fe ff ff 	mov    QWORD PTR [rbp-0x140],rax
    142e:	48 83 bd c0 fe ff ff 	cmp    QWORD PTR [rbp-0x140],0x0
    1435:	00 
    1436:	75 36                	jne    146e <main+0x1c5>
    1438:	48 8b 85 a0 fe ff ff 	mov    rax,QWORD PTR [rbp-0x160]
    143f:	48 83 c0 10          	add    rax,0x10
    1443:	48 8b 10             	mov    rdx,QWORD PTR [rax]
    1446:	48 8b 05 33 3c 00 00 	mov    rax,QWORD PTR [rip+0x3c33]        # 5080 <stderr@GLIBC_2.2.5>
    144d:	48 8d 0d 39 1c 00 00 	lea    rcx,[rip+0x1c39]        # 308d <_IO_stdin_used+0x8d>
    1454:	48 89 ce             	mov    rsi,rcx
    1457:	48 89 c7             	mov    rdi,rax
    145a:	b8 00 00 00 00       	mov    eax,0x0
    145f:	e8 fc fc ff ff       	call   1160 <fprintf@plt>
    1464:	b8 00 00 00 00       	mov    eax,0x0
    1469:	e9 da 01 00 00       	jmp    1648 <main+0x39f>
    146e:	48 8b 85 b8 fe ff ff 	mov    rax,QWORD PTR [rbp-0x148]
    1475:	ba 02 00 00 00       	mov    edx,0x2
    147a:	be 00 00 00 00       	mov    esi,0x0
    147f:	48 89 c7             	mov    rdi,rax
    1482:	e8 09 fd ff ff       	call   1190 <fseek@plt>
    1487:	48 8b 85 b8 fe ff ff 	mov    rax,QWORD PTR [rbp-0x148]
    148e:	48 89 c7             	mov    rdi,rax
    1491:	e8 da fc ff ff       	call   1170 <ftell@plt>
    1496:	48 89 85 c8 fe ff ff 	mov    QWORD PTR [rbp-0x138],rax
    149d:	48 8b 85 b8 fe ff ff 	mov    rax,QWORD PTR [rbp-0x148]
    14a4:	ba 00 00 00 00       	mov    edx,0x0
    14a9:	be 00 00 00 00       	mov    esi,0x0
    14ae:	48 89 c7             	mov    rdi,rax
    14b1:	e8 da fc ff ff       	call   1190 <fseek@plt>
    14b6:	48 8d 85 d0 fe ff ff 	lea    rax,[rbp-0x130]
    14bd:	ba 10 00 00 00       	mov    edx,0x10
    14c2:	48 8d 0d 87 3b 00 00 	lea    rcx,[rip+0x3b87]        # 5050 <signature>
    14c9:	48 89 ce             	mov    rsi,rcx
    14cc:	48 89 c7             	mov    rdi,rax
    14cf:	e8 3c 14 00 00       	call   2910 <AES_CBC_encrypt_buffer>
    14d4:	48 8b 85 c0 fe ff ff 	mov    rax,QWORD PTR [rbp-0x140]
    14db:	48 89 c1             	mov    rcx,rax
    14de:	ba 10 00 00 00       	mov    edx,0x10
    14e3:	be 01 00 00 00       	mov    esi,0x1
    14e8:	48 8d 05 61 3b 00 00 	lea    rax,[rip+0x3b61]        # 5050 <signature>
    14ef:	48 89 c7             	mov    rdi,rax
    14f2:	e8 b9 fc ff ff       	call   11b0 <fwrite@plt>
    14f7:	e9 b4 00 00 00       	jmp    15b0 <main+0x307>
    14fc:	48 8b 95 b8 fe ff ff 	mov    rdx,QWORD PTR [rbp-0x148]
    1503:	48 8d 45 e0          	lea    rax,[rbp-0x20]
    1507:	48 89 d1             	mov    rcx,rdx
    150a:	ba 10 00 00 00       	mov    edx,0x10
    150f:	be 01 00 00 00       	mov    esi,0x1
    1514:	48 89 c7             	mov    rdi,rax
    1517:	e8 e4 fb ff ff       	call   1100 <fread@plt>
    151c:	89 85 b4 fe ff ff    	mov    DWORD PTR [rbp-0x14c],eax
    1522:	83 bd b4 fe ff ff 00 	cmp    DWORD PTR [rbp-0x14c],0x0
    1529:	0f 84 81 00 00 00    	je     15b0 <main+0x307>
    152f:	8b 85 b4 fe ff ff    	mov    eax,DWORD PTR [rbp-0x14c]
    1535:	01 85 b0 fe ff ff    	add    DWORD PTR [rbp-0x150],eax
    153b:	83 bd b4 fe ff ff 0f 	cmp    DWORD PTR [rbp-0x14c],0xf
    1542:	77 31                	ja     1575 <main+0x2cc>
    1544:	b8 10 00 00 00       	mov    eax,0x10
    1549:	2b 85 b4 fe ff ff    	sub    eax,DWORD PTR [rbp-0x14c]
    154f:	89 c2                	mov    edx,eax
    1551:	b8 10 00 00 00       	mov    eax,0x10
    1556:	2b 85 b4 fe ff ff    	sub    eax,DWORD PTR [rbp-0x14c]
    155c:	89 c1                	mov    ecx,eax
    155e:	48 8d 75 e0          	lea    rsi,[rbp-0x20]
    1562:	8b 85 b4 fe ff ff    	mov    eax,DWORD PTR [rbp-0x14c]
    1568:	48 01 f0             	add    rax,rsi
    156b:	89 ce                	mov    esi,ecx
    156d:	48 89 c7             	mov    rdi,rax
    1570:	e8 cb fb ff ff       	call   1140 <memset@plt>
    1575:	48 8d 4d e0          	lea    rcx,[rbp-0x20]
    1579:	48 8d 85 d0 fe ff ff 	lea    rax,[rbp-0x130]
    1580:	ba 10 00 00 00       	mov    edx,0x10
    1585:	48 89 ce             	mov    rsi,rcx
    1588:	48 89 c7             	mov    rdi,rax
    158b:	e8 80 13 00 00       	call   2910 <AES_CBC_encrypt_buffer>
    1590:	48 8b 95 c0 fe ff ff 	mov    rdx,QWORD PTR [rbp-0x140]
    1597:	48 8d 45 e0          	lea    rax,[rbp-0x20]
    159b:	48 89 d1             	mov    rcx,rdx
    159e:	ba 10 00 00 00       	mov    edx,0x10
    15a3:	be 01 00 00 00       	mov    esi,0x1
    15a8:	48 89 c7             	mov    rdi,rax
    15ab:	e8 00 fc ff ff       	call   11b0 <fwrite@plt>
    15b0:	48 8b 85 b8 fe ff ff 	mov    rax,QWORD PTR [rbp-0x148]
    15b7:	48 89 c7             	mov    rdi,rax
    15ba:	e8 c1 fb ff ff       	call   1180 <feof@plt>
    15bf:	85 c0                	test   eax,eax
    15c1:	0f 84 35 ff ff ff    	je     14fc <main+0x253>
    15c7:	8b 85 b0 fe ff ff    	mov    eax,DWORD PTR [rbp-0x150]
    15cd:	83 e0 0f             	and    eax,0xf
    15d0:	85 c0                	test   eax,eax
    15d2:	75 51                	jne    1625 <main+0x37c>
    15d4:	48 8d 45 e0          	lea    rax,[rbp-0x20]
    15d8:	ba 10 00 00 00       	mov    edx,0x10
    15dd:	be 10 00 00 00       	mov    esi,0x10
    15e2:	48 89 c7             	mov    rdi,rax
    15e5:	e8 56 fb ff ff       	call   1140 <memset@plt>
    15ea:	48 8d 4d e0          	lea    rcx,[rbp-0x20]
    15ee:	48 8d 85 d0 fe ff ff 	lea    rax,[rbp-0x130]
    15f5:	ba 10 00 00 00       	mov    edx,0x10
    15fa:	48 89 ce             	mov    rsi,rcx
    15fd:	48 89 c7             	mov    rdi,rax
    1600:	e8 0b 13 00 00       	call   2910 <AES_CBC_encrypt_buffer>
    1605:	48 8b 95 c0 fe ff ff 	mov    rdx,QWORD PTR [rbp-0x140]
    160c:	48 8d 45 e0          	lea    rax,[rbp-0x20]
    1610:	48 89 d1             	mov    rcx,rdx
    1613:	ba 10 00 00 00       	mov    edx,0x10
    1618:	be 01 00 00 00       	mov    esi,0x1
    161d:	48 89 c7             	mov    rdi,rax
    1620:	e8 8b fb ff ff       	call   11b0 <fwrite@plt>
    1625:	48 8b 85 b8 fe ff ff 	mov    rax,QWORD PTR [rbp-0x148]
    162c:	48 89 c7             	mov    rdi,rax
    162f:	e8 dc fa ff ff       	call   1110 <fclose@plt>
    1634:	48 8b 85 c0 fe ff ff 	mov    rax,QWORD PTR [rbp-0x140]
    163b:	48 89 c7             	mov    rdi,rax
    163e:	e8 cd fa ff ff       	call   1110 <fclose@plt>
    1643:	b8 00 00 00 00       	mov    eax,0x0
    1648:	48 8b 55 f8          	mov    rdx,QWORD PTR [rbp-0x8]
    164c:	64 48 2b 14 25 28 00 	sub    rdx,QWORD PTR fs:0x28
    1653:	00 00 
    1655:	74 05                	je     165c <main+0x3b3>
    1657:	e8 c4 fa ff ff       	call   1120 <__stack_chk_fail@plt>
    165c:	c9                   	leave  
    165d:	c3                   	ret    

000000000000165e <KeyExpansion>:
    165e:	f3 0f 1e fa          	endbr64 
    1662:	55                   	push   rbp
    1663:	48 89 e5             	mov    rbp,rsp
    1666:	48 83 ec 30          	sub    rsp,0x30
    166a:	48 89 7d d8          	mov    QWORD PTR [rbp-0x28],rdi
    166e:	48 89 75 d0          	mov    QWORD PTR [rbp-0x30],rsi
    1672:	64 48 8b 04 25 28 00 	mov    rax,QWORD PTR fs:0x28
    1679:	00 00 
    167b:	48 89 45 f8          	mov    QWORD PTR [rbp-0x8],rax
    167f:	31 c0                	xor    eax,eax
    1681:	c7 45 e8 00 00 00 00 	mov    DWORD PTR [rbp-0x18],0x0
    1688:	e9 a2 00 00 00       	jmp    172f <KeyExpansion+0xd1>
    168d:	8b 45 e8             	mov    eax,DWORD PTR [rbp-0x18]
    1690:	c1 e0 02             	shl    eax,0x2
    1693:	89 c2                	mov    edx,eax
    1695:	48 8b 45 d0          	mov    rax,QWORD PTR [rbp-0x30]
    1699:	48 01 d0             	add    rax,rdx
    169c:	8b 55 e8             	mov    edx,DWORD PTR [rbp-0x18]
    169f:	c1 e2 02             	shl    edx,0x2
    16a2:	89 d1                	mov    ecx,edx
    16a4:	48 8b 55 d8          	mov    rdx,QWORD PTR [rbp-0x28]
    16a8:	48 01 ca             	add    rdx,rcx
    16ab:	0f b6 00             	movzx  eax,BYTE PTR [rax]
    16ae:	88 02                	mov    BYTE PTR [rdx],al
    16b0:	8b 45 e8             	mov    eax,DWORD PTR [rbp-0x18]
    16b3:	c1 e0 02             	shl    eax,0x2
    16b6:	83 c0 01             	add    eax,0x1
    16b9:	89 c2                	mov    edx,eax
    16bb:	48 8b 45 d0          	mov    rax,QWORD PTR [rbp-0x30]
    16bf:	48 01 d0             	add    rax,rdx
    16c2:	8b 55 e8             	mov    edx,DWORD PTR [rbp-0x18]
    16c5:	c1 e2 02             	shl    edx,0x2
    16c8:	83 c2 01             	add    edx,0x1
    16cb:	89 d1                	mov    ecx,edx
    16cd:	48 8b 55 d8          	mov    rdx,QWORD PTR [rbp-0x28]
    16d1:	48 01 ca             	add    rdx,rcx
    16d4:	0f b6 00             	movzx  eax,BYTE PTR [rax]
    16d7:	88 02                	mov    BYTE PTR [rdx],al
    16d9:	8b 45 e8             	mov    eax,DWORD PTR [rbp-0x18]
    16dc:	c1 e0 02             	shl    eax,0x2
    16df:	83 c0 02             	add    eax,0x2
    16e2:	89 c2                	mov    edx,eax
    16e4:	48 8b 45 d0          	mov    rax,QWORD PTR [rbp-0x30]
    16e8:	48 01 d0             	add    rax,rdx
    16eb:	8b 55 e8             	mov    edx,DWORD PTR [rbp-0x18]
    16ee:	c1 e2 02             	shl    edx,0x2
    16f1:	83 c2 02             	add    edx,0x2
    16f4:	89 d1                	mov    ecx,edx
    16f6:	48 8b 55 d8          	mov    rdx,QWORD PTR [rbp-0x28]
    16fa:	48 01 ca             	add    rdx,rcx
    16fd:	0f b6 00             	movzx  eax,BYTE PTR [rax]
    1700:	88 02                	mov    BYTE PTR [rdx],al
    1702:	8b 45 e8             	mov    eax,DWORD PTR [rbp-0x18]
    1705:	c1 e0 02             	shl    eax,0x2
    1708:	83 c0 03             	add    eax,0x3
    170b:	89 c2                	mov    edx,eax
    170d:	48 8b 45 d0          	mov    rax,QWORD PTR [rbp-0x30]
    1711:	48 01 d0             	add    rax,rdx
    1714:	8b 55 e8             	mov    edx,DWORD PTR [rbp-0x18]
    1717:	c1 e2 02             	shl    edx,0x2
    171a:	83 c2 03             	add    edx,0x3
    171d:	89 d1                	mov    ecx,edx
    171f:	48 8b 55 d8          	mov    rdx,QWORD PTR [rbp-0x28]
    1723:	48 01 ca             	add    rdx,rcx
    1726:	0f b6 00             	movzx  eax,BYTE PTR [rax]
    1729:	88 02                	mov    BYTE PTR [rdx],al
    172b:	83 45 e8 01          	add    DWORD PTR [rbp-0x18],0x1
    172f:	83 7d e8 07          	cmp    DWORD PTR [rbp-0x18],0x7
    1733:	0f 86 54 ff ff ff    	jbe    168d <KeyExpansion+0x2f>
    1739:	c7 45 e8 08 00 00 00 	mov    DWORD PTR [rbp-0x18],0x8
    1740:	e9 1e 02 00 00       	jmp    1963 <KeyExpansion+0x305>
    1745:	8b 45 e8             	mov    eax,DWORD PTR [rbp-0x18]
    1748:	83 e8 01             	sub    eax,0x1
    174b:	c1 e0 02             	shl    eax,0x2
    174e:	89 45 ec             	mov    DWORD PTR [rbp-0x14],eax
    1751:	8b 55 ec             	mov    edx,DWORD PTR [rbp-0x14]
    1754:	48 8b 45 d8          	mov    rax,QWORD PTR [rbp-0x28]
    1758:	48 01 d0             	add    rax,rdx
    175b:	0f b6 00             	movzx  eax,BYTE PTR [rax]
    175e:	88 45 f4             	mov    BYTE PTR [rbp-0xc],al
    1761:	8b 45 ec             	mov    eax,DWORD PTR [rbp-0x14]
    1764:	83 c0 01             	add    eax,0x1
    1767:	89 c2                	mov    edx,eax
    1769:	48 8b 45 d8          	mov    rax,QWORD PTR [rbp-0x28]
    176d:	48 01 d0             	add    rax,rdx
    1770:	0f b6 00             	movzx  eax,BYTE PTR [rax]
    1773:	88 45 f5             	mov    BYTE PTR [rbp-0xb],al
    1776:	8b 45 ec             	mov    eax,DWORD PTR [rbp-0x14]
    1779:	83 c0 02             	add    eax,0x2
    177c:	89 c2                	mov    edx,eax
    177e:	48 8b 45 d8          	mov    rax,QWORD PTR [rbp-0x28]
    1782:	48 01 d0             	add    rax,rdx
    1785:	0f b6 00             	movzx  eax,BYTE PTR [rax]
    1788:	88 45 f6             	mov    BYTE PTR [rbp-0xa],al
    178b:	8b 45 ec             	mov    eax,DWORD PTR [rbp-0x14]
    178e:	83 c0 03             	add    eax,0x3
    1791:	89 c2                	mov    edx,eax
    1793:	48 8b 45 d8          	mov    rax,QWORD PTR [rbp-0x28]
    1797:	48 01 d0             	add    rax,rdx
    179a:	0f b6 00             	movzx  eax,BYTE PTR [rax]
    179d:	88 45 f7             	mov    BYTE PTR [rbp-0x9],al
    17a0:	8b 45 e8             	mov    eax,DWORD PTR [rbp-0x18]
    17a3:	83 e0 07             	and    eax,0x7
    17a6:	85 c0                	test   eax,eax
    17a8:	0f 85 9b 00 00 00    	jne    1849 <KeyExpansion+0x1eb>
    17ae:	0f b6 45 f4          	movzx  eax,BYTE PTR [rbp-0xc]
    17b2:	88 45 e7             	mov    BYTE PTR [rbp-0x19],al
    17b5:	0f b6 45 f5          	movzx  eax,BYTE PTR [rbp-0xb]
    17b9:	88 45 f4             	mov    BYTE PTR [rbp-0xc],al
    17bc:	0f b6 45 f6          	movzx  eax,BYTE PTR [rbp-0xa]
    17c0:	88 45 f5             	mov    BYTE PTR [rbp-0xb],al
    17c3:	0f b6 45 f7          	movzx  eax,BYTE PTR [rbp-0x9]
    17c7:	88 45 f6             	mov    BYTE PTR [rbp-0xa],al
    17ca:	0f b6 45 e7          	movzx  eax,BYTE PTR [rbp-0x19]
    17ce:	88 45 f7             	mov    BYTE PTR [rbp-0x9],al
    17d1:	0f b6 45 f4          	movzx  eax,BYTE PTR [rbp-0xc]
    17d5:	0f b6 c0             	movzx  eax,al
    17d8:	48 98                	cdqe   
    17da:	48 8d 15 df 18 00 00 	lea    rdx,[rip+0x18df]        # 30c0 <sbox>
    17e1:	0f b6 04 10          	movzx  eax,BYTE PTR [rax+rdx*1]
    17e5:	88 45 f4             	mov    BYTE PTR [rbp-0xc],al
    17e8:	0f b6 45 f5          	movzx  eax,BYTE PTR [rbp-0xb]
    17ec:	0f b6 c0             	movzx  eax,al
    17ef:	48 98                	cdqe   
    17f1:	48 8d 15 c8 18 00 00 	lea    rdx,[rip+0x18c8]        # 30c0 <sbox>
    17f8:	0f b6 04 10          	movzx  eax,BYTE PTR [rax+rdx*1]
    17fc:	88 45 f5             	mov    BYTE PTR [rbp-0xb],al
    17ff:	0f b6 45 f6          	movzx  eax,BYTE PTR [rbp-0xa]
    1803:	0f b6 c0             	movzx  eax,al
    1806:	48 98                	cdqe   
    1808:	48 8d 15 b1 18 00 00 	lea    rdx,[rip+0x18b1]        # 30c0 <sbox>
    180f:	0f b6 04 10          	movzx  eax,BYTE PTR [rax+rdx*1]
    1813:	88 45 f6             	mov    BYTE PTR [rbp-0xa],al
    1816:	0f b6 45 f7          	movzx  eax,BYTE PTR [rbp-0x9]
    181a:	0f b6 c0             	movzx  eax,al
    181d:	48 98                	cdqe   
    181f:	48 8d 15 9a 18 00 00 	lea    rdx,[rip+0x189a]        # 30c0 <sbox>
    1826:	0f b6 04 10          	movzx  eax,BYTE PTR [rax+rdx*1]
    182a:	88 45 f7             	mov    BYTE PTR [rbp-0x9],al
    182d:	0f b6 55 f4          	movzx  edx,BYTE PTR [rbp-0xc]
    1831:	8b 45 e8             	mov    eax,DWORD PTR [rbp-0x18]
    1834:	c1 e8 03             	shr    eax,0x3
    1837:	89 c1                	mov    ecx,eax
    1839:	48 8d 05 80 1a 00 00 	lea    rax,[rip+0x1a80]        # 32c0 <Rcon>
    1840:	0f b6 04 01          	movzx  eax,BYTE PTR [rcx+rax*1]
    1844:	31 d0                	xor    eax,edx
    1846:	88 45 f4             	mov    BYTE PTR [rbp-0xc],al
    1849:	8b 45 e8             	mov    eax,DWORD PTR [rbp-0x18]
    184c:	83 e0 07             	and    eax,0x7
    184f:	83 f8 04             	cmp    eax,0x4
    1852:	75 5c                	jne    18b0 <KeyExpansion+0x252>
    1854:	0f b6 45 f4          	movzx  eax,BYTE PTR [rbp-0xc]
    1858:	0f b6 c0             	movzx  eax,al
    185b:	48 98                	cdqe   
    185d:	48 8d 15 5c 18 00 00 	lea    rdx,[rip+0x185c]        # 30c0 <sbox>
    1864:	0f b6 04 10          	movzx  eax,BYTE PTR [rax+rdx*1]
    1868:	88 45 f4             	mov    BYTE PTR [rbp-0xc],al
    186b:	0f b6 45 f5          	movzx  eax,BYTE PTR [rbp-0xb]
    186f:	0f b6 c0             	movzx  eax,al
    1872:	48 98                	cdqe   
    1874:	48 8d 15 45 18 00 00 	lea    rdx,[rip+0x1845]        # 30c0 <sbox>
    187b:	0f b6 04 10          	movzx  eax,BYTE PTR [rax+rdx*1]
    187f:	88 45 f5             	mov    BYTE PTR [rbp-0xb],al
    1882:	0f b6 45 f6          	movzx  eax,BYTE PTR [rbp-0xa]
    1886:	0f b6 c0             	movzx  eax,al
    1889:	48 98                	cdqe   
    188b:	48 8d 15 2e 18 00 00 	lea    rdx,[rip+0x182e]        # 30c0 <sbox>
    1892:	0f b6 04 10          	movzx  eax,BYTE PTR [rax+rdx*1]
    1896:	88 45 f6             	mov    BYTE PTR [rbp-0xa],al
    1899:	0f b6 45 f7          	movzx  eax,BYTE PTR [rbp-0x9]
    189d:	0f b6 c0             	movzx  eax,al
    18a0:	48 98                	cdqe   
    18a2:	48 8d 15 17 18 00 00 	lea    rdx,[rip+0x1817]        # 30c0 <sbox>
    18a9:	0f b6 04 10          	movzx  eax,BYTE PTR [rax+rdx*1]
    18ad:	88 45 f7             	mov    BYTE PTR [rbp-0x9],al
    18b0:	8b 45 e8             	mov    eax,DWORD PTR [rbp-0x18]
    18b3:	c1 e0 02             	shl    eax,0x2
    18b6:	89 45 f0             	mov    DWORD PTR [rbp-0x10],eax
    18b9:	8b 45 e8             	mov    eax,DWORD PTR [rbp-0x18]
    18bc:	83 e8 08             	sub    eax,0x8
    18bf:	c1 e0 02             	shl    eax,0x2
    18c2:	89 45 ec             	mov    DWORD PTR [rbp-0x14],eax
    18c5:	8b 55 ec             	mov    edx,DWORD PTR [rbp-0x14]
    18c8:	48 8b 45 d8          	mov    rax,QWORD PTR [rbp-0x28]
    18cc:	48 01 d0             	add    rax,rdx
    18cf:	0f b6 08             	movzx  ecx,BYTE PTR [rax]
    18d2:	0f b6 55 f4          	movzx  edx,BYTE PTR [rbp-0xc]
    18d6:	8b 75 f0             	mov    esi,DWORD PTR [rbp-0x10]
    18d9:	48 8b 45 d8          	mov    rax,QWORD PTR [rbp-0x28]
    18dd:	48 01 f0             	add    rax,rsi
    18e0:	31 ca                	xor    edx,ecx
    18e2:	88 10                	mov    BYTE PTR [rax],dl
    18e4:	8b 45 ec             	mov    eax,DWORD PTR [rbp-0x14]
    18e7:	83 c0 01             	add    eax,0x1
    18ea:	89 c2                	mov    edx,eax
    18ec:	48 8b 45 d8          	mov    rax,QWORD PTR [rbp-0x28]
    18f0:	48 01 d0             	add    rax,rdx
    18f3:	0f b6 08             	movzx  ecx,BYTE PTR [rax]
    18f6:	0f b6 55 f5          	movzx  edx,BYTE PTR [rbp-0xb]
    18fa:	8b 45 f0             	mov    eax,DWORD PTR [rbp-0x10]
    18fd:	83 c0 01             	add    eax,0x1
    1900:	89 c6                	mov    esi,eax
    1902:	48 8b 45 d8          	mov    rax,QWORD PTR [rbp-0x28]
    1906:	48 01 f0             	add    rax,rsi
    1909:	31 ca                	xor    edx,ecx
    190b:	88 10                	mov    BYTE PTR [rax],dl
    190d:	8b 45 ec             	mov    eax,DWORD PTR [rbp-0x14]
    1910:	83 c0 02             	add    eax,0x2
    1913:	89 c2                	mov    edx,eax
    1915:	48 8b 45 d8          	mov    rax,QWORD PTR [rbp-0x28]
    1919:	48 01 d0             	add    rax,rdx
    191c:	0f b6 08             	movzx  ecx,BYTE PTR [rax]
    191f:	0f b6 55 f6          	movzx  edx,BYTE PTR [rbp-0xa]
    1923:	8b 45 f0             	mov    eax,DWORD PTR [rbp-0x10]
    1926:	83 c0 02             	add    eax,0x2
    1929:	89 c6                	mov    esi,eax
    192b:	48 8b 45 d8          	mov    rax,QWORD PTR [rbp-0x28]
    192f:	48 01 f0             	add    rax,rsi
    1932:	31 ca                	xor    edx,ecx
    1934:	88 10                	mov    BYTE PTR [rax],dl
    1936:	8b 45 ec             	mov    eax,DWORD PTR [rbp-0x14]
    1939:	83 c0 03             	add    eax,0x3
    193c:	89 c2                	mov    edx,eax
    193e:	48 8b 45 d8          	mov    rax,QWORD PTR [rbp-0x28]
    1942:	48 01 d0             	add    rax,rdx
    1945:	0f b6 08             	movzx  ecx,BYTE PTR [rax]
    1948:	0f b6 55 f7          	movzx  edx,BYTE PTR [rbp-0x9]
    194c:	8b 45 f0             	mov    eax,DWORD PTR [rbp-0x10]
    194f:	83 c0 03             	add    eax,0x3
    1952:	89 c6                	mov    esi,eax
    1954:	48 8b 45 d8          	mov    rax,QWORD PTR [rbp-0x28]
    1958:	48 01 f0             	add    rax,rsi
    195b:	31 ca                	xor    edx,ecx
    195d:	88 10                	mov    BYTE PTR [rax],dl
    195f:	83 45 e8 01          	add    DWORD PTR [rbp-0x18],0x1
    1963:	83 7d e8 3b          	cmp    DWORD PTR [rbp-0x18],0x3b
    1967:	0f 86 d8 fd ff ff    	jbe    1745 <KeyExpansion+0xe7>
    196d:	90                   	nop
    196e:	48 8b 45 f8          	mov    rax,QWORD PTR [rbp-0x8]
    1972:	64 48 2b 04 25 28 00 	sub    rax,QWORD PTR fs:0x28
    1979:	00 00 
    197b:	74 05                	je     1982 <KeyExpansion+0x324>
    197d:	e8 9e f7 ff ff       	call   1120 <__stack_chk_fail@plt>
    1982:	c9                   	leave  
    1983:	c3                   	ret    

0000000000001984 <AES_init_ctx>:
    1984:	f3 0f 1e fa          	endbr64 
    1988:	55                   	push   rbp
    1989:	48 89 e5             	mov    rbp,rsp
    198c:	48 83 ec 10          	sub    rsp,0x10
    1990:	48 89 7d f8          	mov    QWORD PTR [rbp-0x8],rdi
    1994:	48 89 75 f0          	mov    QWORD PTR [rbp-0x10],rsi
    1998:	48 8b 45 f8          	mov    rax,QWORD PTR [rbp-0x8]
    199c:	48 8b 55 f0          	mov    rdx,QWORD PTR [rbp-0x10]
    19a0:	48 89 d6             	mov    rsi,rdx
    19a3:	48 89 c7             	mov    rdi,rax
    19a6:	e8 b3 fc ff ff       	call   165e <KeyExpansion>
    19ab:	90                   	nop
    19ac:	c9                   	leave  
    19ad:	c3                   	ret    

00000000000019ae <AES_init_ctx_iv>:
    19ae:	f3 0f 1e fa          	endbr64 
    19b2:	55                   	push   rbp
    19b3:	48 89 e5             	mov    rbp,rsp
    19b6:	48 83 ec 20          	sub    rsp,0x20
    19ba:	48 89 7d f8          	mov    QWORD PTR [rbp-0x8],rdi
    19be:	48 89 75 f0          	mov    QWORD PTR [rbp-0x10],rsi
    19c2:	48 89 55 e8          	mov    QWORD PTR [rbp-0x18],rdx
    19c6:	48 8b 45 f8          	mov    rax,QWORD PTR [rbp-0x8]
    19ca:	48 8b 55 f0          	mov    rdx,QWORD PTR [rbp-0x10]
    19ce:	48 89 d6             	mov    rsi,rdx
    19d1:	48 89 c7             	mov    rdi,rax
    19d4:	e8 85 fc ff ff       	call   165e <KeyExpansion>
    19d9:	48 8b 45 f8          	mov    rax,QWORD PTR [rbp-0x8]
    19dd:	48 8d 88 f0 00 00 00 	lea    rcx,[rax+0xf0]
    19e4:	48 8b 45 e8          	mov    rax,QWORD PTR [rbp-0x18]
    19e8:	48 8b 50 08          	mov    rdx,QWORD PTR [rax+0x8]
    19ec:	48 8b 00             	mov    rax,QWORD PTR [rax]
    19ef:	48 89 01             	mov    QWORD PTR [rcx],rax
    19f2:	48 89 51 08          	mov    QWORD PTR [rcx+0x8],rdx
    19f6:	90                   	nop
    19f7:	c9                   	leave  
    19f8:	c3                   	ret    

00000000000019f9 <AES_ctx_set_iv>:
    19f9:	f3 0f 1e fa          	endbr64 
    19fd:	55                   	push   rbp
    19fe:	48 89 e5             	mov    rbp,rsp
    1a01:	48 89 7d f8          	mov    QWORD PTR [rbp-0x8],rdi
    1a05:	48 89 75 f0          	mov    QWORD PTR [rbp-0x10],rsi
    1a09:	48 8b 45 f8          	mov    rax,QWORD PTR [rbp-0x8]
    1a0d:	48 8d 88 f0 00 00 00 	lea    rcx,[rax+0xf0]
    1a14:	48 8b 45 f0          	mov    rax,QWORD PTR [rbp-0x10]
    1a18:	48 8b 50 08          	mov    rdx,QWORD PTR [rax+0x8]
    1a1c:	48 8b 00             	mov    rax,QWORD PTR [rax]
    1a1f:	48 89 01             	mov    QWORD PTR [rcx],rax
    1a22:	48 89 51 08          	mov    QWORD PTR [rcx+0x8],rdx
    1a26:	90                   	nop
    1a27:	5d                   	pop    rbp
    1a28:	c3                   	ret    

0000000000001a29 <AddRoundKey>:
    1a29:	f3 0f 1e fa          	endbr64 
    1a2d:	55                   	push   rbp
    1a2e:	48 89 e5             	mov    rbp,rsp
    1a31:	89 f8                	mov    eax,edi
    1a33:	48 89 75 e0          	mov    QWORD PTR [rbp-0x20],rsi
    1a37:	48 89 55 d8          	mov    QWORD PTR [rbp-0x28],rdx
    1a3b:	88 45 ec             	mov    BYTE PTR [rbp-0x14],al
    1a3e:	c6 45 fe 00          	mov    BYTE PTR [rbp-0x2],0x0
    1a42:	eb 7c                	jmp    1ac0 <AddRoundKey+0x97>
    1a44:	c6 45 ff 00          	mov    BYTE PTR [rbp-0x1],0x0
    1a48:	eb 6c                	jmp    1ab6 <AddRoundKey+0x8d>
    1a4a:	0f b6 45 fe          	movzx  eax,BYTE PTR [rbp-0x2]
    1a4e:	0f b6 55 ff          	movzx  edx,BYTE PTR [rbp-0x1]
    1a52:	48 8b 4d e0          	mov    rcx,QWORD PTR [rbp-0x20]
    1a56:	48 63 d2             	movsxd rdx,edx
    1a59:	48 98                	cdqe   
    1a5b:	48 c1 e0 02          	shl    rax,0x2
    1a5f:	48 01 c8             	add    rax,rcx
    1a62:	48 01 d0             	add    rax,rdx
    1a65:	0f b6 30             	movzx  esi,BYTE PTR [rax]
    1a68:	0f b6 45 ec          	movzx  eax,BYTE PTR [rbp-0x14]
    1a6c:	8d 14 85 00 00 00 00 	lea    edx,[rax*4+0x0]
    1a73:	0f b6 45 fe          	movzx  eax,BYTE PTR [rbp-0x2]
    1a77:	01 d0                	add    eax,edx
    1a79:	8d 14 85 00 00 00 00 	lea    edx,[rax*4+0x0]
    1a80:	0f b6 45 ff          	movzx  eax,BYTE PTR [rbp-0x1]
    1a84:	01 d0                	add    eax,edx
    1a86:	48 63 d0             	movsxd rdx,eax
    1a89:	48 8b 45 d8          	mov    rax,QWORD PTR [rbp-0x28]
    1a8d:	48 01 d0             	add    rax,rdx
    1a90:	0f b6 10             	movzx  edx,BYTE PTR [rax]
    1a93:	0f b6 45 fe          	movzx  eax,BYTE PTR [rbp-0x2]
    1a97:	0f b6 4d ff          	movzx  ecx,BYTE PTR [rbp-0x1]
    1a9b:	31 f2                	xor    edx,esi
    1a9d:	48 8b 75 e0          	mov    rsi,QWORD PTR [rbp-0x20]
    1aa1:	48 63 c9             	movsxd rcx,ecx
    1aa4:	48 98                	cdqe   
    1aa6:	48 c1 e0 02          	shl    rax,0x2
    1aaa:	48 01 f0             	add    rax,rsi
    1aad:	48 01 c8             	add    rax,rcx
    1ab0:	88 10                	mov    BYTE PTR [rax],dl
    1ab2:	80 45 ff 01          	add    BYTE PTR [rbp-0x1],0x1
    1ab6:	80 7d ff 03          	cmp    BYTE PTR [rbp-0x1],0x3
    1aba:	76 8e                	jbe    1a4a <AddRoundKey+0x21>
    1abc:	80 45 fe 01          	add    BYTE PTR [rbp-0x2],0x1
    1ac0:	80 7d fe 03          	cmp    BYTE PTR [rbp-0x2],0x3
    1ac4:	0f 86 7a ff ff ff    	jbe    1a44 <AddRoundKey+0x1b>
    1aca:	90                   	nop
    1acb:	90                   	nop
    1acc:	5d                   	pop    rbp
    1acd:	c3                   	ret    

0000000000001ace <SubBytes>:
    1ace:	f3 0f 1e fa          	endbr64 
    1ad2:	55                   	push   rbp
    1ad3:	48 89 e5             	mov    rbp,rsp
    1ad6:	48 89 7d e8          	mov    QWORD PTR [rbp-0x18],rdi
    1ada:	c6 45 fe 00          	mov    BYTE PTR [rbp-0x2],0x0
    1ade:	eb 60                	jmp    1b40 <SubBytes+0x72>
    1ae0:	c6 45 ff 00          	mov    BYTE PTR [rbp-0x1],0x0
    1ae4:	eb 50                	jmp    1b36 <SubBytes+0x68>
    1ae6:	0f b6 45 ff          	movzx  eax,BYTE PTR [rbp-0x1]
    1aea:	0f b6 55 fe          	movzx  edx,BYTE PTR [rbp-0x2]
    1aee:	48 8b 4d e8          	mov    rcx,QWORD PTR [rbp-0x18]
    1af2:	48 63 d2             	movsxd rdx,edx
    1af5:	48 98                	cdqe   
    1af7:	48 c1 e0 02          	shl    rax,0x2
    1afb:	48 01 c8             	add    rax,rcx
    1afe:	48 01 d0             	add    rax,rdx
    1b01:	0f b6 00             	movzx  eax,BYTE PTR [rax]
    1b04:	0f b6 c0             	movzx  eax,al
    1b07:	0f b6 4d ff          	movzx  ecx,BYTE PTR [rbp-0x1]
    1b0b:	0f b6 75 fe          	movzx  esi,BYTE PTR [rbp-0x2]
    1b0f:	48 98                	cdqe   
    1b11:	48 8d 15 a8 15 00 00 	lea    rdx,[rip+0x15a8]        # 30c0 <sbox>
    1b18:	0f b6 14 10          	movzx  edx,BYTE PTR [rax+rdx*1]
    1b1c:	48 8b 7d e8          	mov    rdi,QWORD PTR [rbp-0x18]
    1b20:	48 63 f6             	movsxd rsi,esi
    1b23:	48 63 c1             	movsxd rax,ecx
    1b26:	48 c1 e0 02          	shl    rax,0x2
    1b2a:	48 01 f8             	add    rax,rdi
    1b2d:	48 01 f0             	add    rax,rsi
    1b30:	88 10                	mov    BYTE PTR [rax],dl
    1b32:	80 45 ff 01          	add    BYTE PTR [rbp-0x1],0x1
    1b36:	80 7d ff 03          	cmp    BYTE PTR [rbp-0x1],0x3
    1b3a:	76 aa                	jbe    1ae6 <SubBytes+0x18>
    1b3c:	80 45 fe 01          	add    BYTE PTR [rbp-0x2],0x1
    1b40:	80 7d fe 03          	cmp    BYTE PTR [rbp-0x2],0x3
    1b44:	76 9a                	jbe    1ae0 <SubBytes+0x12>
    1b46:	90                   	nop
    1b47:	90                   	nop
    1b48:	5d                   	pop    rbp
    1b49:	c3                   	ret    

0000000000001b4a <ShiftRows>:
    1b4a:	f3 0f 1e fa          	endbr64 
    1b4e:	55                   	push   rbp
    1b4f:	48 89 e5             	mov    rbp,rsp
    1b52:	48 89 7d e8          	mov    QWORD PTR [rbp-0x18],rdi
    1b56:	48 8b 45 e8          	mov    rax,QWORD PTR [rbp-0x18]
    1b5a:	0f b6 40 01          	movzx  eax,BYTE PTR [rax+0x1]
    1b5e:	88 45 ff             	mov    BYTE PTR [rbp-0x1],al
    1b61:	48 8b 45 e8          	mov    rax,QWORD PTR [rbp-0x18]
    1b65:	0f b6 50 05          	movzx  edx,BYTE PTR [rax+0x5]
    1b69:	48 8b 45 e8          	mov    rax,QWORD PTR [rbp-0x18]
    1b6d:	88 50 01             	mov    BYTE PTR [rax+0x1],dl
    1b70:	48 8b 45 e8          	mov    rax,QWORD PTR [rbp-0x18]
    1b74:	0f b6 50 09          	movzx  edx,BYTE PTR [rax+0x9]
    1b78:	48 8b 45 e8          	mov    rax,QWORD PTR [rbp-0x18]
    1b7c:	88 50 05             	mov    BYTE PTR [rax+0x5],dl
    1b7f:	48 8b 45 e8          	mov    rax,QWORD PTR [rbp-0x18]
    1b83:	0f b6 50 0d          	movzx  edx,BYTE PTR [rax+0xd]
    1b87:	48 8b 45 e8          	mov    rax,QWORD PTR [rbp-0x18]
    1b8b:	88 50 09             	mov    BYTE PTR [rax+0x9],dl
    1b8e:	48 8b 45 e8          	mov    rax,QWORD PTR [rbp-0x18]
    1b92:	0f b6 55 ff          	movzx  edx,BYTE PTR [rbp-0x1]
    1b96:	88 50 0d             	mov    BYTE PTR [rax+0xd],dl
    1b99:	48 8b 45 e8          	mov    rax,QWORD PTR [rbp-0x18]
    1b9d:	0f b6 40 02          	movzx  eax,BYTE PTR [rax+0x2]
    1ba1:	88 45 ff             	mov    BYTE PTR [rbp-0x1],al
    1ba4:	48 8b 45 e8          	mov    rax,QWORD PTR [rbp-0x18]
    1ba8:	0f b6 50 0a          	movzx  edx,BYTE PTR [rax+0xa]
    1bac:	48 8b 45 e8          	mov    rax,QWORD PTR [rbp-0x18]
    1bb0:	88 50 02             	mov    BYTE PTR [rax+0x2],dl
    1bb3:	48 8b 45 e8          	mov    rax,QWORD PTR [rbp-0x18]
    1bb7:	0f b6 55 ff          	movzx  edx,BYTE PTR [rbp-0x1]
    1bbb:	88 50 0a             	mov    BYTE PTR [rax+0xa],dl
    1bbe:	48 8b 45 e8          	mov    rax,QWORD PTR [rbp-0x18]
    1bc2:	0f b6 40 06          	movzx  eax,BYTE PTR [rax+0x6]
    1bc6:	88 45 ff             	mov    BYTE PTR [rbp-0x1],al
    1bc9:	48 8b 45 e8          	mov    rax,QWORD PTR [rbp-0x18]
    1bcd:	0f b6 50 0e          	movzx  edx,BYTE PTR [rax+0xe]
    1bd1:	48 8b 45 e8          	mov    rax,QWORD PTR [rbp-0x18]
    1bd5:	88 50 06             	mov    BYTE PTR [rax+0x6],dl
    1bd8:	48 8b 45 e8          	mov    rax,QWORD PTR [rbp-0x18]
    1bdc:	0f b6 55 ff          	movzx  edx,BYTE PTR [rbp-0x1]
    1be0:	88 50 0e             	mov    BYTE PTR [rax+0xe],dl
    1be3:	48 8b 45 e8          	mov    rax,QWORD PTR [rbp-0x18]
    1be7:	0f b6 40 03          	movzx  eax,BYTE PTR [rax+0x3]
    1beb:	88 45 ff             	mov    BYTE PTR [rbp-0x1],al
    1bee:	48 8b 45 e8          	mov    rax,QWORD PTR [rbp-0x18]
    1bf2:	0f b6 50 0f          	movzx  edx,BYTE PTR [rax+0xf]
    1bf6:	48 8b 45 e8          	mov    rax,QWORD PTR [rbp-0x18]
    1bfa:	88 50 03             	mov    BYTE PTR [rax+0x3],dl
    1bfd:	48 8b 45 e8          	mov    rax,QWORD PTR [rbp-0x18]
    1c01:	0f b6 50 0b          	movzx  edx,BYTE PTR [rax+0xb]
    1c05:	48 8b 45 e8          	mov    rax,QWORD PTR [rbp-0x18]
    1c09:	88 50 0f             	mov    BYTE PTR [rax+0xf],dl
    1c0c:	48 8b 45 e8          	mov    rax,QWORD PTR [rbp-0x18]
    1c10:	0f b6 50 07          	movzx  edx,BYTE PTR [rax+0x7]
    1c14:	48 8b 45 e8          	mov    rax,QWORD PTR [rbp-0x18]
    1c18:	88 50 0b             	mov    BYTE PTR [rax+0xb],dl
    1c1b:	48 8b 45 e8          	mov    rax,QWORD PTR [rbp-0x18]
    1c1f:	0f b6 55 ff          	movzx  edx,BYTE PTR [rbp-0x1]
    1c23:	88 50 07             	mov    BYTE PTR [rax+0x7],dl
    1c26:	90                   	nop
    1c27:	5d                   	pop    rbp
    1c28:	c3                   	ret    

0000000000001c29 <xtime>:
    1c29:	f3 0f 1e fa          	endbr64 
    1c2d:	55                   	push   rbp
    1c2e:	48 89 e5             	mov    rbp,rsp
    1c31:	89 f8                	mov    eax,edi
    1c33:	88 45 fc             	mov    BYTE PTR [rbp-0x4],al
    1c36:	0f b6 45 fc          	movzx  eax,BYTE PTR [rbp-0x4]
    1c3a:	01 c0                	add    eax,eax
    1c3c:	89 c1                	mov    ecx,eax
    1c3e:	0f b6 45 fc          	movzx  eax,BYTE PTR [rbp-0x4]
    1c42:	c0 e8 07             	shr    al,0x7
    1c45:	89 c2                	mov    edx,eax
    1c47:	89 d0                	mov    eax,edx
    1c49:	01 c0                	add    eax,eax
    1c4b:	01 d0                	add    eax,edx
    1c4d:	8d 14 c5 00 00 00 00 	lea    edx,[rax*8+0x0]
    1c54:	01 d0                	add    eax,edx
    1c56:	31 c8                	xor    eax,ecx
    1c58:	5d                   	pop    rbp
    1c59:	c3                   	ret    

0000000000001c5a <MixColumns>:
    1c5a:	f3 0f 1e fa          	endbr64 
    1c5e:	55                   	push   rbp
    1c5f:	48 89 e5             	mov    rbp,rsp
    1c62:	48 83 ec 18          	sub    rsp,0x18
    1c66:	48 89 7d e8          	mov    QWORD PTR [rbp-0x18],rdi
    1c6a:	c6 45 fc 00          	mov    BYTE PTR [rbp-0x4],0x0
    1c6e:	e9 b8 01 00 00       	jmp    1e2b <MixColumns+0x1d1>
    1c73:	0f b6 55 fc          	movzx  edx,BYTE PTR [rbp-0x4]
    1c77:	48 8b 45 e8          	mov    rax,QWORD PTR [rbp-0x18]
    1c7b:	48 63 d2             	movsxd rdx,edx
    1c7e:	0f b6 04 90          	movzx  eax,BYTE PTR [rax+rdx*4]
    1c82:	88 45 fd             	mov    BYTE PTR [rbp-0x3],al
    1c85:	0f b6 55 fc          	movzx  edx,BYTE PTR [rbp-0x4]
    1c89:	48 8b 45 e8          	mov    rax,QWORD PTR [rbp-0x18]
    1c8d:	48 63 d2             	movsxd rdx,edx
    1c90:	0f b6 0c 90          	movzx  ecx,BYTE PTR [rax+rdx*4]
    1c94:	0f b6 55 fc          	movzx  edx,BYTE PTR [rbp-0x4]
    1c98:	48 8b 45 e8          	mov    rax,QWORD PTR [rbp-0x18]
    1c9c:	48 63 d2             	movsxd rdx,edx
    1c9f:	0f b6 44 90 01       	movzx  eax,BYTE PTR [rax+rdx*4+0x1]
    1ca4:	31 c1                	xor    ecx,eax
    1ca6:	0f b6 55 fc          	movzx  edx,BYTE PTR [rbp-0x4]
    1caa:	48 8b 45 e8          	mov    rax,QWORD PTR [rbp-0x18]
    1cae:	48 63 d2             	movsxd rdx,edx
    1cb1:	0f b6 44 90 02       	movzx  eax,BYTE PTR [rax+rdx*4+0x2]
    1cb6:	31 c1                	xor    ecx,eax
    1cb8:	0f b6 55 fc          	movzx  edx,BYTE PTR [rbp-0x4]
    1cbc:	48 8b 45 e8          	mov    rax,QWORD PTR [rbp-0x18]
    1cc0:	48 63 d2             	movsxd rdx,edx
    1cc3:	0f b6 44 90 03       	movzx  eax,BYTE PTR [rax+rdx*4+0x3]
    1cc8:	31 c8                	xor    eax,ecx
    1cca:	88 45 fe             	mov    BYTE PTR [rbp-0x2],al
    1ccd:	0f b6 55 fc          	movzx  edx,BYTE PTR [rbp-0x4]
    1cd1:	48 8b 45 e8          	mov    rax,QWORD PTR [rbp-0x18]
    1cd5:	48 63 d2             	movsxd rdx,edx
    1cd8:	0f b6 0c 90          	movzx  ecx,BYTE PTR [rax+rdx*4]
    1cdc:	0f b6 55 fc          	movzx  edx,BYTE PTR [rbp-0x4]
    1ce0:	48 8b 45 e8          	mov    rax,QWORD PTR [rbp-0x18]
    1ce4:	48 63 d2             	movsxd rdx,edx
    1ce7:	0f b6 44 90 01       	movzx  eax,BYTE PTR [rax+rdx*4+0x1]
    1cec:	31 c8                	xor    eax,ecx
    1cee:	88 45 ff             	mov    BYTE PTR [rbp-0x1],al
    1cf1:	0f b6 45 ff          	movzx  eax,BYTE PTR [rbp-0x1]
    1cf5:	89 c7                	mov    edi,eax
    1cf7:	e8 2d ff ff ff       	call   1c29 <xtime>
    1cfc:	88 45 ff             	mov    BYTE PTR [rbp-0x1],al
    1cff:	0f b6 55 fc          	movzx  edx,BYTE PTR [rbp-0x4]
    1d03:	48 8b 45 e8          	mov    rax,QWORD PTR [rbp-0x18]
    1d07:	48 63 d2             	movsxd rdx,edx
    1d0a:	0f b6 0c 90          	movzx  ecx,BYTE PTR [rax+rdx*4]
    1d0e:	0f b6 45 ff          	movzx  eax,BYTE PTR [rbp-0x1]
    1d12:	32 45 fe             	xor    al,BYTE PTR [rbp-0x2]
    1d15:	0f b6 55 fc          	movzx  edx,BYTE PTR [rbp-0x4]
    1d19:	31 c1                	xor    ecx,eax
    1d1b:	48 8b 45 e8          	mov    rax,QWORD PTR [rbp-0x18]
    1d1f:	48 63 d2             	movsxd rdx,edx
    1d22:	88 0c 90             	mov    BYTE PTR [rax+rdx*4],cl
    1d25:	0f b6 55 fc          	movzx  edx,BYTE PTR [rbp-0x4]
    1d29:	48 8b 45 e8          	mov    rax,QWORD PTR [rbp-0x18]
    1d2d:	48 63 d2             	movsxd rdx,edx
    1d30:	0f b6 4c 90 01       	movzx  ecx,BYTE PTR [rax+rdx*4+0x1]
    1d35:	0f b6 55 fc          	movzx  edx,BYTE PTR [rbp-0x4]
    1d39:	48 8b 45 e8          	mov    rax,QWORD PTR [rbp-0x18]
    1d3d:	48 63 d2             	movsxd rdx,edx
    1d40:	0f b6 44 90 02       	movzx  eax,BYTE PTR [rax+rdx*4+0x2]
    1d45:	31 c8                	xor    eax,ecx
    1d47:	88 45 ff             	mov    BYTE PTR [rbp-0x1],al
    1d4a:	0f b6 45 ff          	movzx  eax,BYTE PTR [rbp-0x1]
    1d4e:	89 c7                	mov    edi,eax
    1d50:	e8 d4 fe ff ff       	call   1c29 <xtime>
    1d55:	88 45 ff             	mov    BYTE PTR [rbp-0x1],al
    1d58:	0f b6 55 fc          	movzx  edx,BYTE PTR [rbp-0x4]
    1d5c:	48 8b 45 e8          	mov    rax,QWORD PTR [rbp-0x18]
    1d60:	48 63 d2             	movsxd rdx,edx
    1d63:	0f b6 4c 90 01       	movzx  ecx,BYTE PTR [rax+rdx*4+0x1]
    1d68:	0f b6 45 ff          	movzx  eax,BYTE PTR [rbp-0x1]
    1d6c:	32 45 fe             	xor    al,BYTE PTR [rbp-0x2]
    1d6f:	0f b6 55 fc          	movzx  edx,BYTE PTR [rbp-0x4]
    1d73:	31 c1                	xor    ecx,eax
    1d75:	48 8b 45 e8          	mov    rax,QWORD PTR [rbp-0x18]
    1d79:	48 63 d2             	movsxd rdx,edx
    1d7c:	88 4c 90 01          	mov    BYTE PTR [rax+rdx*4+0x1],cl
    1d80:	0f b6 55 fc          	movzx  edx,BYTE PTR [rbp-0x4]
    1d84:	48 8b 45 e8          	mov    rax,QWORD PTR [rbp-0x18]
    1d88:	48 63 d2             	movsxd rdx,edx
    1d8b:	0f b6 4c 90 02       	movzx  ecx,BYTE PTR [rax+rdx*4+0x2]
    1d90:	0f b6 55 fc          	movzx  edx,BYTE PTR [rbp-0x4]
    1d94:	48 8b 45 e8          	mov    rax,QWORD PTR [rbp-0x18]
    1d98:	48 63 d2             	movsxd rdx,edx
    1d9b:	0f b6 44 90 03       	movzx  eax,BYTE PTR [rax+rdx*4+0x3]
    1da0:	31 c8                	xor    eax,ecx
    1da2:	88 45 ff             	mov    BYTE PTR [rbp-0x1],al
    1da5:	0f b6 45 ff          	movzx  eax,BYTE PTR [rbp-0x1]
    1da9:	89 c7                	mov    edi,eax
    1dab:	e8 79 fe ff ff       	call   1c29 <xtime>
    1db0:	88 45 ff             	mov    BYTE PTR [rbp-0x1],al
    1db3:	0f b6 55 fc          	movzx  edx,BYTE PTR [rbp-0x4]
    1db7:	48 8b 45 e8          	mov    rax,QWORD PTR [rbp-0x18]
    1dbb:	48 63 d2             	movsxd rdx,edx
    1dbe:	0f b6 4c 90 02       	movzx  ecx,BYTE PTR [rax+rdx*4+0x2]
    1dc3:	0f b6 45 ff          	movzx  eax,BYTE PTR [rbp-0x1]
    1dc7:	32 45 fe             	xor    al,BYTE PTR [rbp-0x2]
    1dca:	0f b6 55 fc          	movzx  edx,BYTE PTR [rbp-0x4]
    1dce:	31 c1                	xor    ecx,eax
    1dd0:	48 8b 45 e8          	mov    rax,QWORD PTR [rbp-0x18]
    1dd4:	48 63 d2             	movsxd rdx,edx
    1dd7:	88 4c 90 02          	mov    BYTE PTR [rax+rdx*4+0x2],cl
    1ddb:	0f b6 55 fc          	movzx  edx,BYTE PTR [rbp-0x4]
    1ddf:	48 8b 45 e8          	mov    rax,QWORD PTR [rbp-0x18]
    1de3:	48 63 d2             	movsxd rdx,edx
    1de6:	0f b6 44 90 03       	movzx  eax,BYTE PTR [rax+rdx*4+0x3]
    1deb:	32 45 fd             	xor    al,BYTE PTR [rbp-0x3]
    1dee:	88 45 ff             	mov    BYTE PTR [rbp-0x1],al
    1df1:	0f b6 45 ff          	movzx  eax,BYTE PTR [rbp-0x1]
    1df5:	89 c7                	mov    edi,eax
    1df7:	e8 2d fe ff ff       	call   1c29 <xtime>
    1dfc:	88 45 ff             	mov    BYTE PTR [rbp-0x1],al
    1dff:	0f b6 55 fc          	movzx  edx,BYTE PTR [rbp-0x4]
    1e03:	48 8b 45 e8          	mov    rax,QWORD PTR [rbp-0x18]
    1e07:	48 63 d2             	movsxd rdx,edx
    1e0a:	0f b6 4c 90 03       	movzx  ecx,BYTE PTR [rax+rdx*4+0x3]
    1e0f:	0f b6 45 ff          	movzx  eax,BYTE PTR [rbp-0x1]
    1e13:	32 45 fe             	xor    al,BYTE PTR [rbp-0x2]
    1e16:	0f b6 55 fc          	movzx  edx,BYTE PTR [rbp-0x4]
    1e1a:	31 c1                	xor    ecx,eax
    1e1c:	48 8b 45 e8          	mov    rax,QWORD PTR [rbp-0x18]
    1e20:	48 63 d2             	movsxd rdx,edx
    1e23:	88 4c 90 03          	mov    BYTE PTR [rax+rdx*4+0x3],cl
    1e27:	80 45 fc 01          	add    BYTE PTR [rbp-0x4],0x1
    1e2b:	80 7d fc 03          	cmp    BYTE PTR [rbp-0x4],0x3
    1e2f:	0f 86 3e fe ff ff    	jbe    1c73 <MixColumns+0x19>
    1e35:	90                   	nop
    1e36:	90                   	nop
    1e37:	c9                   	leave  
    1e38:	c3                   	ret    

0000000000001e39 <InvMixColumns>:
    1e39:	f3 0f 1e fa          	endbr64 
    1e3d:	55                   	push   rbp
    1e3e:	48 89 e5             	mov    rbp,rsp
    1e41:	41 54                	push   r12
    1e43:	53                   	push   rbx
    1e44:	48 83 ec 18          	sub    rsp,0x18
    1e48:	48 89 7d d8          	mov    QWORD PTR [rbp-0x28],rdi
    1e4c:	c7 45 ec 00 00 00 00 	mov    DWORD PTR [rbp-0x14],0x0
    1e53:	e9 9a 07 00 00       	jmp    25f2 <InvMixColumns+0x7b9>
    1e58:	48 8b 45 d8          	mov    rax,QWORD PTR [rbp-0x28]
    1e5c:	8b 55 ec             	mov    edx,DWORD PTR [rbp-0x14]
    1e5f:	48 63 d2             	movsxd rdx,edx
    1e62:	0f b6 04 90          	movzx  eax,BYTE PTR [rax+rdx*4]
    1e66:	88 45 e8             	mov    BYTE PTR [rbp-0x18],al
    1e69:	48 8b 45 d8          	mov    rax,QWORD PTR [rbp-0x28]
    1e6d:	8b 55 ec             	mov    edx,DWORD PTR [rbp-0x14]
    1e70:	48 63 d2             	movsxd rdx,edx
    1e73:	0f b6 44 90 01       	movzx  eax,BYTE PTR [rax+rdx*4+0x1]
    1e78:	88 45 e9             	mov    BYTE PTR [rbp-0x17],al
    1e7b:	48 8b 45 d8          	mov    rax,QWORD PTR [rbp-0x28]
    1e7f:	8b 55 ec             	mov    edx,DWORD PTR [rbp-0x14]
    1e82:	48 63 d2             	movsxd rdx,edx
    1e85:	0f b6 44 90 02       	movzx  eax,BYTE PTR [rax+rdx*4+0x2]
    1e8a:	88 45 ea             	mov    BYTE PTR [rbp-0x16],al
    1e8d:	48 8b 45 d8          	mov    rax,QWORD PTR [rbp-0x28]
    1e91:	8b 55 ec             	mov    edx,DWORD PTR [rbp-0x14]
    1e94:	48 63 d2             	movsxd rdx,edx
    1e97:	0f b6 44 90 03       	movzx  eax,BYTE PTR [rax+rdx*4+0x3]
    1e9c:	88 45 eb             	mov    BYTE PTR [rbp-0x15],al
    1e9f:	0f b6 45 e8          	movzx  eax,BYTE PTR [rbp-0x18]
    1ea3:	89 c7                	mov    edi,eax
    1ea5:	e8 7f fd ff ff       	call   1c29 <xtime>
    1eaa:	0f b6 c0             	movzx  eax,al
    1ead:	89 c7                	mov    edi,eax
    1eaf:	e8 75 fd ff ff       	call   1c29 <xtime>
    1eb4:	0f b6 c0             	movzx  eax,al
    1eb7:	89 c7                	mov    edi,eax
    1eb9:	e8 6b fd ff ff       	call   1c29 <xtime>
    1ebe:	0f b6 c0             	movzx  eax,al
    1ec1:	89 c7                	mov    edi,eax
    1ec3:	e8 61 fd ff ff       	call   1c29 <xtime>
    1ec8:	0f b6 45 e9          	movzx  eax,BYTE PTR [rbp-0x17]
    1ecc:	89 c7                	mov    edi,eax
    1ece:	e8 56 fd ff ff       	call   1c29 <xtime>
    1ed3:	0f b6 c0             	movzx  eax,al
    1ed6:	89 c7                	mov    edi,eax
    1ed8:	e8 4c fd ff ff       	call   1c29 <xtime>
    1edd:	0f b6 45 e9          	movzx  eax,BYTE PTR [rbp-0x17]
    1ee1:	89 c7                	mov    edi,eax
    1ee3:	e8 41 fd ff ff       	call   1c29 <xtime>
    1ee8:	0f b6 c0             	movzx  eax,al
    1eeb:	89 c7                	mov    edi,eax
    1eed:	e8 37 fd ff ff       	call   1c29 <xtime>
    1ef2:	0f b6 c0             	movzx  eax,al
    1ef5:	89 c7                	mov    edi,eax
    1ef7:	e8 2d fd ff ff       	call   1c29 <xtime>
    1efc:	0f b6 c0             	movzx  eax,al
    1eff:	89 c7                	mov    edi,eax
    1f01:	e8 23 fd ff ff       	call   1c29 <xtime>
    1f06:	0f b6 45 ea          	movzx  eax,BYTE PTR [rbp-0x16]
    1f0a:	89 c7                	mov    edi,eax
    1f0c:	e8 18 fd ff ff       	call   1c29 <xtime>
    1f11:	0f b6 45 ea          	movzx  eax,BYTE PTR [rbp-0x16]
    1f15:	89 c7                	mov    edi,eax
    1f17:	e8 0d fd ff ff       	call   1c29 <xtime>
    1f1c:	0f b6 c0             	movzx  eax,al
    1f1f:	89 c7                	mov    edi,eax
    1f21:	e8 03 fd ff ff       	call   1c29 <xtime>
    1f26:	0f b6 c0             	movzx  eax,al
    1f29:	89 c7                	mov    edi,eax
    1f2b:	e8 f9 fc ff ff       	call   1c29 <xtime>
    1f30:	0f b6 c0             	movzx  eax,al
    1f33:	89 c7                	mov    edi,eax
    1f35:	e8 ef fc ff ff       	call   1c29 <xtime>
    1f3a:	0f b6 45 eb          	movzx  eax,BYTE PTR [rbp-0x15]
    1f3e:	89 c7                	mov    edi,eax
    1f40:	e8 e4 fc ff ff       	call   1c29 <xtime>
    1f45:	0f b6 45 eb          	movzx  eax,BYTE PTR [rbp-0x15]
    1f49:	89 c7                	mov    edi,eax
    1f4b:	e8 d9 fc ff ff       	call   1c29 <xtime>
    1f50:	0f b6 c0             	movzx  eax,al
    1f53:	89 c7                	mov    edi,eax
    1f55:	e8 cf fc ff ff       	call   1c29 <xtime>
    1f5a:	0f b6 45 eb          	movzx  eax,BYTE PTR [rbp-0x15]
    1f5e:	89 c7                	mov    edi,eax
    1f60:	e8 c4 fc ff ff       	call   1c29 <xtime>
    1f65:	0f b6 c0             	movzx  eax,al
    1f68:	89 c7                	mov    edi,eax
    1f6a:	e8 ba fc ff ff       	call   1c29 <xtime>
    1f6f:	0f b6 c0             	movzx  eax,al
    1f72:	89 c7                	mov    edi,eax
    1f74:	e8 b0 fc ff ff       	call   1c29 <xtime>
    1f79:	0f b6 c0             	movzx  eax,al
    1f7c:	89 c7                	mov    edi,eax
    1f7e:	e8 a6 fc ff ff       	call   1c29 <xtime>
    1f83:	0f b6 45 e8          	movzx  eax,BYTE PTR [rbp-0x18]
    1f87:	89 c7                	mov    edi,eax
    1f89:	e8 9b fc ff ff       	call   1c29 <xtime>
    1f8e:	89 c3                	mov    ebx,eax
    1f90:	0f b6 45 e8          	movzx  eax,BYTE PTR [rbp-0x18]
    1f94:	89 c7                	mov    edi,eax
    1f96:	e8 8e fc ff ff       	call   1c29 <xtime>
    1f9b:	0f b6 c0             	movzx  eax,al
    1f9e:	89 c7                	mov    edi,eax
    1fa0:	e8 84 fc ff ff       	call   1c29 <xtime>
    1fa5:	31 c3                	xor    ebx,eax
    1fa7:	0f b6 45 e8          	movzx  eax,BYTE PTR [rbp-0x18]
    1fab:	89 c7                	mov    edi,eax
    1fad:	e8 77 fc ff ff       	call   1c29 <xtime>
    1fb2:	0f b6 c0             	movzx  eax,al
    1fb5:	89 c7                	mov    edi,eax
    1fb7:	e8 6d fc ff ff       	call   1c29 <xtime>
    1fbc:	0f b6 c0             	movzx  eax,al
    1fbf:	89 c7                	mov    edi,eax
    1fc1:	e8 63 fc ff ff       	call   1c29 <xtime>
    1fc6:	31 c3                	xor    ebx,eax
    1fc8:	41 89 dc             	mov    r12d,ebx
    1fcb:	0f b6 45 e9          	movzx  eax,BYTE PTR [rbp-0x17]
    1fcf:	89 c7                	mov    edi,eax
    1fd1:	e8 53 fc ff ff       	call   1c29 <xtime>
    1fd6:	32 45 e9             	xor    al,BYTE PTR [rbp-0x17]
    1fd9:	89 c3                	mov    ebx,eax
    1fdb:	0f b6 45 e9          	movzx  eax,BYTE PTR [rbp-0x17]
    1fdf:	89 c7                	mov    edi,eax
    1fe1:	e8 43 fc ff ff       	call   1c29 <xtime>
    1fe6:	0f b6 c0             	movzx  eax,al
    1fe9:	89 c7                	mov    edi,eax
    1feb:	e8 39 fc ff ff       	call   1c29 <xtime>
    1ff0:	0f b6 c0             	movzx  eax,al
    1ff3:	89 c7                	mov    edi,eax
    1ff5:	e8 2f fc ff ff       	call   1c29 <xtime>
    1ffa:	31 d8                	xor    eax,ebx
    1ffc:	41 31 c4             	xor    r12d,eax
    1fff:	0f b6 45 ea          	movzx  eax,BYTE PTR [rbp-0x16]
    2003:	89 c7                	mov    edi,eax
    2005:	e8 1f fc ff ff       	call   1c29 <xtime>
    200a:	0f b6 c0             	movzx  eax,al
    200d:	89 c7                	mov    edi,eax
    200f:	e8 15 fc ff ff       	call   1c29 <xtime>
    2014:	32 45 ea             	xor    al,BYTE PTR [rbp-0x16]
    2017:	89 c3                	mov    ebx,eax
    2019:	0f b6 45 ea          	movzx  eax,BYTE PTR [rbp-0x16]
    201d:	89 c7                	mov    edi,eax
    201f:	e8 05 fc ff ff       	call   1c29 <xtime>
    2024:	0f b6 c0             	movzx  eax,al
    2027:	89 c7                	mov    edi,eax
    2029:	e8 fb fb ff ff       	call   1c29 <xtime>
    202e:	0f b6 c0             	movzx  eax,al
    2031:	89 c7                	mov    edi,eax
    2033:	e8 f1 fb ff ff       	call   1c29 <xtime>
    2038:	31 d8                	xor    eax,ebx
    203a:	44 89 e3             	mov    ebx,r12d
    203d:	31 c3                	xor    ebx,eax
    203f:	0f b6 45 eb          	movzx  eax,BYTE PTR [rbp-0x15]
    2043:	89 c7                	mov    edi,eax
    2045:	e8 df fb ff ff       	call   1c29 <xtime>
    204a:	0f b6 c0             	movzx  eax,al
    204d:	89 c7                	mov    edi,eax
    204f:	e8 d5 fb ff ff       	call   1c29 <xtime>
    2054:	0f b6 c0             	movzx  eax,al
    2057:	89 c7                	mov    edi,eax
    2059:	e8 cb fb ff ff       	call   1c29 <xtime>
    205e:	32 45 eb             	xor    al,BYTE PTR [rbp-0x15]
    2061:	89 d9                	mov    ecx,ebx
    2063:	31 c1                	xor    ecx,eax
    2065:	48 8b 45 d8          	mov    rax,QWORD PTR [rbp-0x28]
    2069:	8b 55 ec             	mov    edx,DWORD PTR [rbp-0x14]
    206c:	48 63 d2             	movsxd rdx,edx
    206f:	88 0c 90             	mov    BYTE PTR [rax+rdx*4],cl
    2072:	0f b6 45 e8          	movzx  eax,BYTE PTR [rbp-0x18]
    2076:	89 c7                	mov    edi,eax
    2078:	e8 ac fb ff ff       	call   1c29 <xtime>
    207d:	0f b6 45 e8          	movzx  eax,BYTE PTR [rbp-0x18]
    2081:	89 c7                	mov    edi,eax
    2083:	e8 a1 fb ff ff       	call   1c29 <xtime>
    2088:	0f b6 c0             	movzx  eax,al
    208b:	89 c7                	mov    edi,eax
    208d:	e8 97 fb ff ff       	call   1c29 <xtime>
    2092:	0f b6 45 e8          	movzx  eax,BYTE PTR [rbp-0x18]
    2096:	89 c7                	mov    edi,eax
    2098:	e8 8c fb ff ff       	call   1c29 <xtime>
    209d:	0f b6 c0             	movzx  eax,al
    20a0:	89 c7                	mov    edi,eax
    20a2:	e8 82 fb ff ff       	call   1c29 <xtime>
    20a7:	0f b6 c0             	movzx  eax,al
    20aa:	89 c7                	mov    edi,eax
    20ac:	e8 78 fb ff ff       	call   1c29 <xtime>
    20b1:	0f b6 c0             	movzx  eax,al
    20b4:	89 c7                	mov    edi,eax
    20b6:	e8 6e fb ff ff       	call   1c29 <xtime>
    20bb:	0f b6 45 e9          	movzx  eax,BYTE PTR [rbp-0x17]
    20bf:	89 c7                	mov    edi,eax
    20c1:	e8 63 fb ff ff       	call   1c29 <xtime>
    20c6:	0f b6 c0             	movzx  eax,al
    20c9:	89 c7                	mov    edi,eax
    20cb:	e8 59 fb ff ff       	call   1c29 <xtime>
    20d0:	0f b6 c0             	movzx  eax,al
    20d3:	89 c7                	mov    edi,eax
    20d5:	e8 4f fb ff ff       	call   1c29 <xtime>
    20da:	0f b6 c0             	movzx  eax,al
    20dd:	89 c7                	mov    edi,eax
    20df:	e8 45 fb ff ff       	call   1c29 <xtime>
    20e4:	0f b6 45 ea          	movzx  eax,BYTE PTR [rbp-0x16]
    20e8:	89 c7                	mov    edi,eax
    20ea:	e8 3a fb ff ff       	call   1c29 <xtime>
    20ef:	0f b6 c0             	movzx  eax,al
    20f2:	89 c7                	mov    edi,eax
    20f4:	e8 30 fb ff ff       	call   1c29 <xtime>
    20f9:	0f b6 45 ea          	movzx  eax,BYTE PTR [rbp-0x16]
    20fd:	89 c7                	mov    edi,eax
    20ff:	e8 25 fb ff ff       	call   1c29 <xtime>
    2104:	0f b6 c0             	movzx  eax,al
    2107:	89 c7                	mov    edi,eax
    2109:	e8 1b fb ff ff       	call   1c29 <xtime>
    210e:	0f b6 c0             	movzx  eax,al
    2111:	89 c7                	mov    edi,eax
    2113:	e8 11 fb ff ff       	call   1c29 <xtime>
    2118:	0f b6 c0             	movzx  eax,al
    211b:	89 c7                	mov    edi,eax
    211d:	e8 07 fb ff ff       	call   1c29 <xtime>
    2122:	0f b6 45 eb          	movzx  eax,BYTE PTR [rbp-0x15]
    2126:	89 c7                	mov    edi,eax
    2128:	e8 fc fa ff ff       	call   1c29 <xtime>
    212d:	0f b6 45 eb          	movzx  eax,BYTE PTR [rbp-0x15]
    2131:	89 c7                	mov    edi,eax
    2133:	e8 f1 fa ff ff       	call   1c29 <xtime>
    2138:	0f b6 c0             	movzx  eax,al
    213b:	89 c7                	mov    edi,eax
    213d:	e8 e7 fa ff ff       	call   1c29 <xtime>
    2142:	0f b6 c0             	movzx  eax,al
    2145:	89 c7                	mov    edi,eax
    2147:	e8 dd fa ff ff       	call   1c29 <xtime>
    214c:	0f b6 c0             	movzx  eax,al
    214f:	89 c7                	mov    edi,eax
    2151:	e8 d3 fa ff ff       	call   1c29 <xtime>
    2156:	0f b6 45 e8          	movzx  eax,BYTE PTR [rbp-0x18]
    215a:	89 c7                	mov    edi,eax
    215c:	e8 c8 fa ff ff       	call   1c29 <xtime>
    2161:	0f b6 c0             	movzx  eax,al
    2164:	89 c7                	mov    edi,eax
    2166:	e8 be fa ff ff       	call   1c29 <xtime>
    216b:	0f b6 c0             	movzx  eax,al
    216e:	89 c7                	mov    edi,eax
    2170:	e8 b4 fa ff ff       	call   1c29 <xtime>
    2175:	32 45 e8             	xor    al,BYTE PTR [rbp-0x18]
    2178:	41 89 c4             	mov    r12d,eax
    217b:	0f b6 45 e9          	movzx  eax,BYTE PTR [rbp-0x17]
    217f:	89 c7                	mov    edi,eax
    2181:	e8 a3 fa ff ff       	call   1c29 <xtime>
    2186:	89 c3                	mov    ebx,eax
    2188:	0f b6 45 e9          	movzx  eax,BYTE PTR [rbp-0x17]
    218c:	89 c7                	mov    edi,eax
    218e:	e8 96 fa ff ff       	call   1c29 <xtime>
    2193:	0f b6 c0             	movzx  eax,al
    2196:	89 c7                	mov    edi,eax
    2198:	e8 8c fa ff ff       	call   1c29 <xtime>
    219d:	31 c3                	xor    ebx,eax
    219f:	0f b6 45 e9          	movzx  eax,BYTE PTR [rbp-0x17]
    21a3:	89 c7                	mov    edi,eax
    21a5:	e8 7f fa ff ff       	call   1c29 <xtime>
    21aa:	0f b6 c0             	movzx  eax,al
    21ad:	89 c7                	mov    edi,eax
    21af:	e8 75 fa ff ff       	call   1c29 <xtime>
    21b4:	0f b6 c0             	movzx  eax,al
    21b7:	89 c7                	mov    edi,eax
    21b9:	e8 6b fa ff ff       	call   1c29 <xtime>
    21be:	31 d8                	xor    eax,ebx
    21c0:	41 31 c4             	xor    r12d,eax
    21c3:	0f b6 45 ea          	movzx  eax,BYTE PTR [rbp-0x16]
    21c7:	89 c7                	mov    edi,eax
    21c9:	e8 5b fa ff ff       	call   1c29 <xtime>
    21ce:	32 45 ea             	xor    al,BYTE PTR [rbp-0x16]
    21d1:	89 c3                	mov    ebx,eax
    21d3:	0f b6 45 ea          	movzx  eax,BYTE PTR [rbp-0x16]
    21d7:	89 c7                	mov    edi,eax
    21d9:	e8 4b fa ff ff       	call   1c29 <xtime>
    21de:	0f b6 c0             	movzx  eax,al
    21e1:	89 c7                	mov    edi,eax
    21e3:	e8 41 fa ff ff       	call   1c29 <xtime>
    21e8:	0f b6 c0             	movzx  eax,al
    21eb:	89 c7                	mov    edi,eax
    21ed:	e8 37 fa ff ff       	call   1c29 <xtime>
    21f2:	31 d8                	xor    eax,ebx
    21f4:	41 31 c4             	xor    r12d,eax
    21f7:	0f b6 45 eb          	movzx  eax,BYTE PTR [rbp-0x15]
    21fb:	89 c7                	mov    edi,eax
    21fd:	e8 27 fa ff ff       	call   1c29 <xtime>
    2202:	0f b6 c0             	movzx  eax,al
    2205:	89 c7                	mov    edi,eax
    2207:	e8 1d fa ff ff       	call   1c29 <xtime>
    220c:	32 45 eb             	xor    al,BYTE PTR [rbp-0x15]
    220f:	89 c3                	mov    ebx,eax
    2211:	0f b6 45 eb          	movzx  eax,BYTE PTR [rbp-0x15]
    2215:	89 c7                	mov    edi,eax
    2217:	e8 0d fa ff ff       	call   1c29 <xtime>
    221c:	0f b6 c0             	movzx  eax,al
    221f:	89 c7                	mov    edi,eax
    2221:	e8 03 fa ff ff       	call   1c29 <xtime>
    2226:	0f b6 c0             	movzx  eax,al
    2229:	89 c7                	mov    edi,eax
    222b:	e8 f9 f9 ff ff       	call   1c29 <xtime>
    2230:	31 d8                	xor    eax,ebx
    2232:	44 89 e1             	mov    ecx,r12d
    2235:	31 c1                	xor    ecx,eax
    2237:	48 8b 45 d8          	mov    rax,QWORD PTR [rbp-0x28]
    223b:	8b 55 ec             	mov    edx,DWORD PTR [rbp-0x14]
    223e:	48 63 d2             	movsxd rdx,edx
    2241:	88 4c 90 01          	mov    BYTE PTR [rax+rdx*4+0x1],cl
    2245:	0f b6 45 e8          	movzx  eax,BYTE PTR [rbp-0x18]
    2249:	89 c7                	mov    edi,eax
    224b:	e8 d9 f9 ff ff       	call   1c29 <xtime>
    2250:	0f b6 45 e8          	movzx  eax,BYTE PTR [rbp-0x18]
    2254:	89 c7                	mov    edi,eax
    2256:	e8 ce f9 ff ff       	call   1c29 <xtime>
    225b:	0f b6 c0             	movzx  eax,al
    225e:	89 c7                	mov    edi,eax
    2260:	e8 c4 f9 ff ff       	call   1c29 <xtime>
    2265:	0f b6 c0             	movzx  eax,al
    2268:	89 c7                	mov    edi,eax
    226a:	e8 ba f9 ff ff       	call   1c29 <xtime>
    226f:	0f b6 c0             	movzx  eax,al
    2272:	89 c7                	mov    edi,eax
    2274:	e8 b0 f9 ff ff       	call   1c29 <xtime>
    2279:	0f b6 45 e9          	movzx  eax,BYTE PTR [rbp-0x17]
    227d:	89 c7                	mov    edi,eax
    227f:	e8 a5 f9 ff ff       	call   1c29 <xtime>
    2284:	0f b6 45 e9          	movzx  eax,BYTE PTR [rbp-0x17]
    2288:	89 c7                	mov    edi,eax
    228a:	e8 9a f9 ff ff       	call   1c29 <xtime>
    228f:	0f b6 c0             	movzx  eax,al
    2292:	89 c7                	mov    edi,eax
    2294:	e8 90 f9 ff ff       	call   1c29 <xtime>
    2299:	0f b6 45 e9          	movzx  eax,BYTE PTR [rbp-0x17]
    229d:	89 c7                	mov    edi,eax
    229f:	e8 85 f9 ff ff       	call   1c29 <xtime>
    22a4:	0f b6 c0             	movzx  eax,al
    22a7:	89 c7                	mov    edi,eax
    22a9:	e8 7b f9 ff ff       	call   1c29 <xtime>
    22ae:	0f b6 c0             	movzx  eax,al
    22b1:	89 c7                	mov    edi,eax
    22b3:	e8 71 f9 ff ff       	call   1c29 <xtime>
    22b8:	0f b6 c0             	movzx  eax,al
    22bb:	89 c7                	mov    edi,eax
    22bd:	e8 67 f9 ff ff       	call   1c29 <xtime>
    22c2:	0f b6 45 ea          	movzx  eax,BYTE PTR [rbp-0x16]
    22c6:	89 c7                	mov    edi,eax
    22c8:	e8 5c f9 ff ff       	call   1c29 <xtime>
    22cd:	0f b6 c0             	movzx  eax,al
    22d0:	89 c7                	mov    edi,eax
    22d2:	e8 52 f9 ff ff       	call   1c29 <xtime>
    22d7:	0f b6 c0             	movzx  eax,al
    22da:	89 c7                	mov    edi,eax
    22dc:	e8 48 f9 ff ff       	call   1c29 <xtime>
    22e1:	0f b6 c0             	movzx  eax,al
    22e4:	89 c7                	mov    edi,eax
    22e6:	e8 3e f9 ff ff       	call   1c29 <xtime>
    22eb:	0f b6 45 eb          	movzx  eax,BYTE PTR [rbp-0x15]
    22ef:	89 c7                	mov    edi,eax
    22f1:	e8 33 f9 ff ff       	call   1c29 <xtime>
    22f6:	0f b6 c0             	movzx  eax,al
    22f9:	89 c7                	mov    edi,eax
    22fb:	e8 29 f9 ff ff       	call   1c29 <xtime>
    2300:	0f b6 45 eb          	movzx  eax,BYTE PTR [rbp-0x15]
    2304:	89 c7                	mov    edi,eax
    2306:	e8 1e f9 ff ff       	call   1c29 <xtime>
    230b:	0f b6 c0             	movzx  eax,al
    230e:	89 c7                	mov    edi,eax
    2310:	e8 14 f9 ff ff       	call   1c29 <xtime>
    2315:	0f b6 c0             	movzx  eax,al
    2318:	89 c7                	mov    edi,eax
    231a:	e8 0a f9 ff ff       	call   1c29 <xtime>
    231f:	0f b6 c0             	movzx  eax,al
    2322:	89 c7                	mov    edi,eax
    2324:	e8 00 f9 ff ff       	call   1c29 <xtime>
    2329:	0f b6 45 e8          	movzx  eax,BYTE PTR [rbp-0x18]
    232d:	89 c7                	mov    edi,eax
    232f:	e8 f5 f8 ff ff       	call   1c29 <xtime>
    2334:	0f b6 c0             	movzx  eax,al
    2337:	89 c7                	mov    edi,eax
    2339:	e8 eb f8 ff ff       	call   1c29 <xtime>
    233e:	32 45 e8             	xor    al,BYTE PTR [rbp-0x18]
    2341:	89 c3                	mov    ebx,eax
    2343:	0f b6 45 e8          	movzx  eax,BYTE PTR [rbp-0x18]
    2347:	89 c7                	mov    edi,eax
    2349:	e8 db f8 ff ff       	call   1c29 <xtime>
    234e:	0f b6 c0             	movzx  eax,al
    2351:	89 c7                	mov    edi,eax
    2353:	e8 d1 f8 ff ff       	call   1c29 <xtime>
    2358:	0f b6 c0             	movzx  eax,al
    235b:	89 c7                	mov    edi,eax
    235d:	e8 c7 f8 ff ff       	call   1c29 <xtime>
    2362:	31 c3                	xor    ebx,eax
    2364:	0f b6 45 e9          	movzx  eax,BYTE PTR [rbp-0x17]
    2368:	89 c7                	mov    edi,eax
    236a:	e8 ba f8 ff ff       	call   1c29 <xtime>
    236f:	0f b6 c0             	movzx  eax,al
    2372:	89 c7                	mov    edi,eax
    2374:	e8 b0 f8 ff ff       	call   1c29 <xtime>
    2379:	0f b6 c0             	movzx  eax,al
    237c:	89 c7                	mov    edi,eax
    237e:	e8 a6 f8 ff ff       	call   1c29 <xtime>
    2383:	32 45 e9             	xor    al,BYTE PTR [rbp-0x17]
    2386:	31 c3                	xor    ebx,eax
    2388:	41 89 dc             	mov    r12d,ebx
    238b:	0f b6 45 ea          	movzx  eax,BYTE PTR [rbp-0x16]
    238f:	89 c7                	mov    edi,eax
    2391:	e8 93 f8 ff ff       	call   1c29 <xtime>
    2396:	89 c3                	mov    ebx,eax
    2398:	0f b6 45 ea          	movzx  eax,BYTE PTR [rbp-0x16]
    239c:	89 c7                	mov    edi,eax
    239e:	e8 86 f8 ff ff       	call   1c29 <xtime>
    23a3:	0f b6 c0             	movzx  eax,al
    23a6:	89 c7                	mov    edi,eax
    23a8:	e8 7c f8 ff ff       	call   1c29 <xtime>
    23ad:	31 c3                	xor    ebx,eax
    23af:	0f b6 45 ea          	movzx  eax,BYTE PTR [rbp-0x16]
    23b3:	89 c7                	mov    edi,eax
    23b5:	e8 6f f8 ff ff       	call   1c29 <xtime>
    23ba:	0f b6 c0             	movzx  eax,al
    23bd:	89 c7                	mov    edi,eax
    23bf:	e8 65 f8 ff ff       	call   1c29 <xtime>
    23c4:	0f b6 c0             	movzx  eax,al
    23c7:	89 c7                	mov    edi,eax
    23c9:	e8 5b f8 ff ff       	call   1c29 <xtime>
    23ce:	31 d8                	xor    eax,ebx
    23d0:	41 31 c4             	xor    r12d,eax
    23d3:	0f b6 45 eb          	movzx  eax,BYTE PTR [rbp-0x15]
    23d7:	89 c7                	mov    edi,eax
    23d9:	e8 4b f8 ff ff       	call   1c29 <xtime>
    23de:	32 45 eb             	xor    al,BYTE PTR [rbp-0x15]
    23e1:	89 c3                	mov    ebx,eax
    23e3:	0f b6 45 eb          	movzx  eax,BYTE PTR [rbp-0x15]
    23e7:	89 c7                	mov    edi,eax
    23e9:	e8 3b f8 ff ff       	call   1c29 <xtime>
    23ee:	0f b6 c0             	movzx  eax,al
    23f1:	89 c7                	mov    edi,eax
    23f3:	e8 31 f8 ff ff       	call   1c29 <xtime>
    23f8:	0f b6 c0             	movzx  eax,al
    23fb:	89 c7                	mov    edi,eax
    23fd:	e8 27 f8 ff ff       	call   1c29 <xtime>
    2402:	31 d8                	xor    eax,ebx
    2404:	44 89 e1             	mov    ecx,r12d
    2407:	31 c1                	xor    ecx,eax
    2409:	48 8b 45 d8          	mov    rax,QWORD PTR [rbp-0x28]
    240d:	8b 55 ec             	mov    edx,DWORD PTR [rbp-0x14]
    2410:	48 63 d2             	movsxd rdx,edx
    2413:	88 4c 90 02          	mov    BYTE PTR [rax+rdx*4+0x2],cl
    2417:	0f b6 45 e8          	movzx  eax,BYTE PTR [rbp-0x18]
    241b:	89 c7                	mov    edi,eax
    241d:	e8 07 f8 ff ff       	call   1c29 <xtime>
    2422:	0f b6 c0             	movzx  eax,al
    2425:	89 c7                	mov    edi,eax
    2427:	e8 fd f7 ff ff       	call   1c29 <xtime>
    242c:	0f b6 45 e8          	movzx  eax,BYTE PTR [rbp-0x18]
    2430:	89 c7                	mov    edi,eax
    2432:	e8 f2 f7 ff ff       	call   1c29 <xtime>
    2437:	0f b6 c0             	movzx  eax,al
    243a:	89 c7                	mov    edi,eax
    243c:	e8 e8 f7 ff ff       	call   1c29 <xtime>
    2441:	0f b6 c0             	movzx  eax,al
    2444:	89 c7                	mov    edi,eax
    2446:	e8 de f7 ff ff       	call   1c29 <xtime>
    244b:	0f b6 c0             	movzx  eax,al
    244e:	89 c7                	mov    edi,eax
    2450:	e8 d4 f7 ff ff       	call   1c29 <xtime>
    2455:	0f b6 45 e9          	movzx  eax,BYTE PTR [rbp-0x17]
    2459:	89 c7                	mov    edi,eax
    245b:	e8 c9 f7 ff ff       	call   1c29 <xtime>
    2460:	0f b6 45 e9          	movzx  eax,BYTE PTR [rbp-0x17]
    2464:	89 c7                	mov    edi,eax
    2466:	e8 be f7 ff ff       	call   1c29 <xtime>
    246b:	0f b6 c0             	movzx  eax,al
    246e:	89 c7                	mov    edi,eax
    2470:	e8 b4 f7 ff ff       	call   1c29 <xtime>
    2475:	0f b6 c0             	movzx  eax,al
    2478:	89 c7                	mov    edi,eax
    247a:	e8 aa f7 ff ff       	call   1c29 <xtime>
    247f:	0f b6 c0             	movzx  eax,al
    2482:	89 c7                	mov    edi,eax
    2484:	e8 a0 f7 ff ff       	call   1c29 <xtime>
    2489:	0f b6 45 ea          	movzx  eax,BYTE PTR [rbp-0x16]
    248d:	89 c7                	mov    edi,eax
    248f:	e8 95 f7 ff ff       	call   1c29 <xtime>
    2494:	0f b6 45 ea          	movzx  eax,BYTE PTR [rbp-0x16]
    2498:	89 c7                	mov    edi,eax
    249a:	e8 8a f7 ff ff       	call   1c29 <xtime>
    249f:	0f b6 c0             	movzx  eax,al
    24a2:	89 c7                	mov    edi,eax
    24a4:	e8 80 f7 ff ff       	call   1c29 <xtime>
    24a9:	0f b6 45 ea          	movzx  eax,BYTE PTR [rbp-0x16]
    24ad:	89 c7                	mov    edi,eax
    24af:	e8 75 f7 ff ff       	call   1c29 <xtime>
    24b4:	0f b6 c0             	movzx  eax,al
    24b7:	89 c7                	mov    edi,eax
    24b9:	e8 6b f7 ff ff       	call   1c29 <xtime>
    24be:	0f b6 c0             	movzx  eax,al
    24c1:	89 c7                	mov    edi,eax
    24c3:	e8 61 f7 ff ff       	call   1c29 <xtime>
    24c8:	0f b6 c0             	movzx  eax,al
    24cb:	89 c7                	mov    edi,eax
    24cd:	e8 57 f7 ff ff       	call   1c29 <xtime>
    24d2:	0f b6 45 eb          	movzx  eax,BYTE PTR [rbp-0x15]
    24d6:	89 c7                	mov    edi,eax
    24d8:	e8 4c f7 ff ff       	call   1c29 <xtime>
    24dd:	0f b6 c0             	movzx  eax,al
    24e0:	89 c7                	mov    edi,eax
    24e2:	e8 42 f7 ff ff       	call   1c29 <xtime>
    24e7:	0f b6 c0             	movzx  eax,al
    24ea:	89 c7                	mov    edi,eax
    24ec:	e8 38 f7 ff ff       	call   1c29 <xtime>
    24f1:	0f b6 c0             	movzx  eax,al
    24f4:	89 c7                	mov    edi,eax
    24f6:	e8 2e f7 ff ff       	call   1c29 <xtime>
    24fb:	0f b6 45 e8          	movzx  eax,BYTE PTR [rbp-0x18]
    24ff:	89 c7                	mov    edi,eax
    2501:	e8 23 f7 ff ff       	call   1c29 <xtime>
    2506:	32 45 e8             	xor    al,BYTE PTR [rbp-0x18]
    2509:	89 c3                	mov    ebx,eax
    250b:	0f b6 45 e8          	movzx  eax,BYTE PTR [rbp-0x18]
    250f:	89 c7                	mov    edi,eax
    2511:	e8 13 f7 ff ff       	call   1c29 <xtime>
    2516:	0f b6 c0             	movzx  eax,al
    2519:	89 c7                	mov    edi,eax
    251b:	e8 09 f7 ff ff       	call   1c29 <xtime>
    2520:	0f b6 c0             	movzx  eax,al
    2523:	89 c7                	mov    edi,eax
    2525:	e8 ff f6 ff ff       	call   1c29 <xtime>
    252a:	31 c3                	xor    ebx,eax
    252c:	41 89 dc             	mov    r12d,ebx
    252f:	0f b6 45 e9          	movzx  eax,BYTE PTR [rbp-0x17]
    2533:	89 c7                	mov    edi,eax
    2535:	e8 ef f6 ff ff       	call   1c29 <xtime>
    253a:	0f b6 c0             	movzx  eax,al
    253d:	89 c7                	mov    edi,eax
    253f:	e8 e5 f6 ff ff       	call   1c29 <xtime>
    2544:	32 45 e9             	xor    al,BYTE PTR [rbp-0x17]
    2547:	89 c3                	mov    ebx,eax
    2549:	0f b6 45 e9          	movzx  eax,BYTE PTR [rbp-0x17]
    254d:	89 c7                	mov    edi,eax
    254f:	e8 d5 f6 ff ff       	call   1c29 <xtime>
    2554:	0f b6 c0             	movzx  eax,al
    2557:	89 c7                	mov    edi,eax
    2559:	e8 cb f6 ff ff       	call   1c29 <xtime>
    255e:	0f b6 c0             	movzx  eax,al
    2561:	89 c7                	mov    edi,eax
    2563:	e8 c1 f6 ff ff       	call   1c29 <xtime>
    2568:	31 d8                	xor    eax,ebx
    256a:	44 89 e3             	mov    ebx,r12d
    256d:	31 c3                	xor    ebx,eax
    256f:	0f b6 45 ea          	movzx  eax,BYTE PTR [rbp-0x16]
    2573:	89 c7                	mov    edi,eax
    2575:	e8 af f6 ff ff       	call   1c29 <xtime>
    257a:	0f b6 c0             	movzx  eax,al
    257d:	89 c7                	mov    edi,eax
    257f:	e8 a5 f6 ff ff       	call   1c29 <xtime>
    2584:	0f b6 c0             	movzx  eax,al
    2587:	89 c7                	mov    edi,eax
    2589:	e8 9b f6 ff ff       	call   1c29 <xtime>
    258e:	32 45 ea             	xor    al,BYTE PTR [rbp-0x16]
    2591:	31 c3                	xor    ebx,eax
    2593:	41 89 dc             	mov    r12d,ebx
    2596:	0f b6 45 eb          	movzx  eax,BYTE PTR [rbp-0x15]
    259a:	89 c7                	mov    edi,eax
    259c:	e8 88 f6 ff ff       	call   1c29 <xtime>
    25a1:	89 c3                	mov    ebx,eax
    25a3:	0f b6 45 eb          	movzx  eax,BYTE PTR [rbp-0x15]
    25a7:	89 c7                	mov    edi,eax
    25a9:	e8 7b f6 ff ff       	call   1c29 <xtime>
    25ae:	0f b6 c0             	movzx  eax,al
    25b1:	89 c7                	mov    edi,eax
    25b3:	e8 71 f6 ff ff       	call   1c29 <xtime>
    25b8:	31 c3                	xor    ebx,eax
    25ba:	0f b6 45 eb          	movzx  eax,BYTE PTR [rbp-0x15]
    25be:	89 c7                	mov    edi,eax
    25c0:	e8 64 f6 ff ff       	call   1c29 <xtime>
    25c5:	0f b6 c0             	movzx  eax,al
    25c8:	89 c7                	mov    edi,eax
    25ca:	e8 5a f6 ff ff       	call   1c29 <xtime>
    25cf:	0f b6 c0             	movzx  eax,al
    25d2:	89 c7                	mov    edi,eax
    25d4:	e8 50 f6 ff ff       	call   1c29 <xtime>
    25d9:	31 d8                	xor    eax,ebx
    25db:	44 89 e1             	mov    ecx,r12d
    25de:	31 c1                	xor    ecx,eax
    25e0:	48 8b 45 d8          	mov    rax,QWORD PTR [rbp-0x28]
    25e4:	8b 55 ec             	mov    edx,DWORD PTR [rbp-0x14]
    25e7:	48 63 d2             	movsxd rdx,edx
    25ea:	88 4c 90 03          	mov    BYTE PTR [rax+rdx*4+0x3],cl
    25ee:	83 45 ec 01          	add    DWORD PTR [rbp-0x14],0x1
    25f2:	83 7d ec 03          	cmp    DWORD PTR [rbp-0x14],0x3
    25f6:	0f 8e 5c f8 ff ff    	jle    1e58 <InvMixColumns+0x1f>
    25fc:	90                   	nop
    25fd:	90                   	nop
    25fe:	48 83 c4 18          	add    rsp,0x18
    2602:	5b                   	pop    rbx
    2603:	41 5c                	pop    r12
    2605:	5d                   	pop    rbp
    2606:	c3                   	ret    

0000000000002607 <InvSubBytes>:
    2607:	f3 0f 1e fa          	endbr64 
    260b:	55                   	push   rbp
    260c:	48 89 e5             	mov    rbp,rsp
    260f:	48 89 7d e8          	mov    QWORD PTR [rbp-0x18],rdi
    2613:	c6 45 fe 00          	mov    BYTE PTR [rbp-0x2],0x0
    2617:	eb 60                	jmp    2679 <InvSubBytes+0x72>
    2619:	c6 45 ff 00          	mov    BYTE PTR [rbp-0x1],0x0
    261d:	eb 50                	jmp    266f <InvSubBytes+0x68>
    261f:	0f b6 45 ff          	movzx  eax,BYTE PTR [rbp-0x1]
    2623:	0f b6 55 fe          	movzx  edx,BYTE PTR [rbp-0x2]
    2627:	48 8b 4d e8          	mov    rcx,QWORD PTR [rbp-0x18]
    262b:	48 63 d2             	movsxd rdx,edx
    262e:	48 98                	cdqe   
    2630:	48 c1 e0 02          	shl    rax,0x2
    2634:	48 01 c8             	add    rax,rcx
    2637:	48 01 d0             	add    rax,rdx
    263a:	0f b6 00             	movzx  eax,BYTE PTR [rax]
    263d:	0f b6 c0             	movzx  eax,al
    2640:	0f b6 4d ff          	movzx  ecx,BYTE PTR [rbp-0x1]
    2644:	0f b6 75 fe          	movzx  esi,BYTE PTR [rbp-0x2]
    2648:	48 98                	cdqe   
    264a:	48 8d 15 6f 0b 00 00 	lea    rdx,[rip+0xb6f]        # 31c0 <rsbox>
    2651:	0f b6 14 10          	movzx  edx,BYTE PTR [rax+rdx*1]
    2655:	48 8b 7d e8          	mov    rdi,QWORD PTR [rbp-0x18]
    2659:	48 63 f6             	movsxd rsi,esi
    265c:	48 63 c1             	movsxd rax,ecx
    265f:	48 c1 e0 02          	shl    rax,0x2
    2663:	48 01 f8             	add    rax,rdi
    2666:	48 01 f0             	add    rax,rsi
    2669:	88 10                	mov    BYTE PTR [rax],dl
    266b:	80 45 ff 01          	add    BYTE PTR [rbp-0x1],0x1
    266f:	80 7d ff 03          	cmp    BYTE PTR [rbp-0x1],0x3
    2673:	76 aa                	jbe    261f <InvSubBytes+0x18>
    2675:	80 45 fe 01          	add    BYTE PTR [rbp-0x2],0x1
    2679:	80 7d fe 03          	cmp    BYTE PTR [rbp-0x2],0x3
    267d:	76 9a                	jbe    2619 <InvSubBytes+0x12>
    267f:	90                   	nop
    2680:	90                   	nop
    2681:	5d                   	pop    rbp
    2682:	c3                   	ret    

0000000000002683 <InvShiftRows>:
    2683:	f3 0f 1e fa          	endbr64 
    2687:	55                   	push   rbp
    2688:	48 89 e5             	mov    rbp,rsp
    268b:	48 89 7d e8          	mov    QWORD PTR [rbp-0x18],rdi
    268f:	48 8b 45 e8          	mov    rax,QWORD PTR [rbp-0x18]
    2693:	0f b6 40 0d          	movzx  eax,BYTE PTR [rax+0xd]
    2697:	88 45 ff             	mov    BYTE PTR [rbp-0x1],al
    269a:	48 8b 45 e8          	mov    rax,QWORD PTR [rbp-0x18]
    269e:	0f b6 50 09          	movzx  edx,BYTE PTR [rax+0x9]
    26a2:	48 8b 45 e8          	mov    rax,QWORD PTR [rbp-0x18]
    26a6:	88 50 0d             	mov    BYTE PTR [rax+0xd],dl
    26a9:	48 8b 45 e8          	mov    rax,QWORD PTR [rbp-0x18]
    26ad:	0f b6 50 05          	movzx  edx,BYTE PTR [rax+0x5]
    26b1:	48 8b 45 e8          	mov    rax,QWORD PTR [rbp-0x18]
    26b5:	88 50 09             	mov    BYTE PTR [rax+0x9],dl
    26b8:	48 8b 45 e8          	mov    rax,QWORD PTR [rbp-0x18]
    26bc:	0f b6 50 01          	movzx  edx,BYTE PTR [rax+0x1]
    26c0:	48 8b 45 e8          	mov    rax,QWORD PTR [rbp-0x18]
    26c4:	88 50 05             	mov    BYTE PTR [rax+0x5],dl
    26c7:	48 8b 45 e8          	mov    rax,QWORD PTR [rbp-0x18]
    26cb:	0f b6 55 ff          	movzx  edx,BYTE PTR [rbp-0x1]
    26cf:	88 50 01             	mov    BYTE PTR [rax+0x1],dl
    26d2:	48 8b 45 e8          	mov    rax,QWORD PTR [rbp-0x18]
    26d6:	0f b6 40 02          	movzx  eax,BYTE PTR [rax+0x2]
    26da:	88 45 ff             	mov    BYTE PTR [rbp-0x1],al
    26dd:	48 8b 45 e8          	mov    rax,QWORD PTR [rbp-0x18]
    26e1:	0f b6 50 0a          	movzx  edx,BYTE PTR [rax+0xa]
    26e5:	48 8b 45 e8          	mov    rax,QWORD PTR [rbp-0x18]
    26e9:	88 50 02             	mov    BYTE PTR [rax+0x2],dl
    26ec:	48 8b 45 e8          	mov    rax,QWORD PTR [rbp-0x18]
    26f0:	0f b6 55 ff          	movzx  edx,BYTE PTR [rbp-0x1]
    26f4:	88 50 0a             	mov    BYTE PTR [rax+0xa],dl
    26f7:	48 8b 45 e8          	mov    rax,QWORD PTR [rbp-0x18]
    26fb:	0f b6 40 06          	movzx  eax,BYTE PTR [rax+0x6]
    26ff:	88 45 ff             	mov    BYTE PTR [rbp-0x1],al
    2702:	48 8b 45 e8          	mov    rax,QWORD PTR [rbp-0x18]
    2706:	0f b6 50 0e          	movzx  edx,BYTE PTR [rax+0xe]
    270a:	48 8b 45 e8          	mov    rax,QWORD PTR [rbp-0x18]
    270e:	88 50 06             	mov    BYTE PTR [rax+0x6],dl
    2711:	48 8b 45 e8          	mov    rax,QWORD PTR [rbp-0x18]
    2715:	0f b6 55 ff          	movzx  edx,BYTE PTR [rbp-0x1]
    2719:	88 50 0e             	mov    BYTE PTR [rax+0xe],dl
    271c:	48 8b 45 e8          	mov    rax,QWORD PTR [rbp-0x18]
    2720:	0f b6 40 03          	movzx  eax,BYTE PTR [rax+0x3]
    2724:	88 45 ff             	mov    BYTE PTR [rbp-0x1],al
    2727:	48 8b 45 e8          	mov    rax,QWORD PTR [rbp-0x18]
    272b:	0f b6 50 07          	movzx  edx,BYTE PTR [rax+0x7]
    272f:	48 8b 45 e8          	mov    rax,QWORD PTR [rbp-0x18]
    2733:	88 50 03             	mov    BYTE PTR [rax+0x3],dl
    2736:	48 8b 45 e8          	mov    rax,QWORD PTR [rbp-0x18]
    273a:	0f b6 50 0b          	movzx  edx,BYTE PTR [rax+0xb]
    273e:	48 8b 45 e8          	mov    rax,QWORD PTR [rbp-0x18]
    2742:	88 50 07             	mov    BYTE PTR [rax+0x7],dl
    2745:	48 8b 45 e8          	mov    rax,QWORD PTR [rbp-0x18]
    2749:	0f b6 50 0f          	movzx  edx,BYTE PTR [rax+0xf]
    274d:	48 8b 45 e8          	mov    rax,QWORD PTR [rbp-0x18]
    2751:	88 50 0b             	mov    BYTE PTR [rax+0xb],dl
    2754:	48 8b 45 e8          	mov    rax,QWORD PTR [rbp-0x18]
    2758:	0f b6 55 ff          	movzx  edx,BYTE PTR [rbp-0x1]
    275c:	88 50 0f             	mov    BYTE PTR [rax+0xf],dl
    275f:	90                   	nop
    2760:	5d                   	pop    rbp
    2761:	c3                   	ret    

0000000000002762 <Cipher>:
    2762:	f3 0f 1e fa          	endbr64 
    2766:	55                   	push   rbp
    2767:	48 89 e5             	mov    rbp,rsp
    276a:	48 83 ec 20          	sub    rsp,0x20
    276e:	48 89 7d e8          	mov    QWORD PTR [rbp-0x18],rdi
    2772:	48 89 75 e0          	mov    QWORD PTR [rbp-0x20],rsi
    2776:	c6 45 ff 00          	mov    BYTE PTR [rbp-0x1],0x0
    277a:	48 8b 55 e0          	mov    rdx,QWORD PTR [rbp-0x20]
    277e:	48 8b 45 e8          	mov    rax,QWORD PTR [rbp-0x18]
    2782:	48 89 c6             	mov    rsi,rax
    2785:	bf 00 00 00 00       	mov    edi,0x0
    278a:	e8 9a f2 ff ff       	call   1a29 <AddRoundKey>
    278f:	c6 45 ff 01          	mov    BYTE PTR [rbp-0x1],0x1
    2793:	48 8b 45 e8          	mov    rax,QWORD PTR [rbp-0x18]
    2797:	48 89 c7             	mov    rdi,rax
    279a:	e8 2f f3 ff ff       	call   1ace <SubBytes>
    279f:	48 8b 45 e8          	mov    rax,QWORD PTR [rbp-0x18]
    27a3:	48 89 c7             	mov    rdi,rax
    27a6:	e8 9f f3 ff ff       	call   1b4a <ShiftRows>
    27ab:	80 7d ff 0e          	cmp    BYTE PTR [rbp-0x1],0xe
    27af:	74 28                	je     27d9 <Cipher+0x77>
    27b1:	48 8b 45 e8          	mov    rax,QWORD PTR [rbp-0x18]
    27b5:	48 89 c7             	mov    rdi,rax
    27b8:	e8 9d f4 ff ff       	call   1c5a <MixColumns>
    27bd:	0f b6 45 ff          	movzx  eax,BYTE PTR [rbp-0x1]
    27c1:	48 8b 55 e0          	mov    rdx,QWORD PTR [rbp-0x20]
    27c5:	48 8b 4d e8          	mov    rcx,QWORD PTR [rbp-0x18]
    27c9:	48 89 ce             	mov    rsi,rcx
    27cc:	89 c7                	mov    edi,eax
    27ce:	e8 56 f2 ff ff       	call   1a29 <AddRoundKey>
    27d3:	80 45 ff 01          	add    BYTE PTR [rbp-0x1],0x1
    27d7:	eb ba                	jmp    2793 <Cipher+0x31>
    27d9:	90                   	nop
    27da:	48 8b 55 e0          	mov    rdx,QWORD PTR [rbp-0x20]
    27de:	48 8b 45 e8          	mov    rax,QWORD PTR [rbp-0x18]
    27e2:	48 89 c6             	mov    rsi,rax
    27e5:	bf 0e 00 00 00       	mov    edi,0xe
    27ea:	e8 3a f2 ff ff       	call   1a29 <AddRoundKey>
    27ef:	90                   	nop
    27f0:	c9                   	leave  
    27f1:	c3                   	ret    

00000000000027f2 <InvCipher>:
    27f2:	f3 0f 1e fa          	endbr64 
    27f6:	55                   	push   rbp
    27f7:	48 89 e5             	mov    rbp,rsp
    27fa:	48 83 ec 20          	sub    rsp,0x20
    27fe:	48 89 7d e8          	mov    QWORD PTR [rbp-0x18],rdi
    2802:	48 89 75 e0          	mov    QWORD PTR [rbp-0x20],rsi
    2806:	c6 45 ff 00          	mov    BYTE PTR [rbp-0x1],0x0
    280a:	48 8b 55 e0          	mov    rdx,QWORD PTR [rbp-0x20]
    280e:	48 8b 45 e8          	mov    rax,QWORD PTR [rbp-0x18]
    2812:	48 89 c6             	mov    rsi,rax
    2815:	bf 0e 00 00 00       	mov    edi,0xe
    281a:	e8 0a f2 ff ff       	call   1a29 <AddRoundKey>
    281f:	c6 45 ff 0d          	mov    BYTE PTR [rbp-0x1],0xd
    2823:	48 8b 45 e8          	mov    rax,QWORD PTR [rbp-0x18]
    2827:	48 89 c7             	mov    rdi,rax
    282a:	e8 54 fe ff ff       	call   2683 <InvShiftRows>
    282f:	48 8b 45 e8          	mov    rax,QWORD PTR [rbp-0x18]
    2833:	48 89 c7             	mov    rdi,rax
    2836:	e8 cc fd ff ff       	call   2607 <InvSubBytes>
    283b:	0f b6 45 ff          	movzx  eax,BYTE PTR [rbp-0x1]
    283f:	48 8b 55 e0          	mov    rdx,QWORD PTR [rbp-0x20]
    2843:	48 8b 4d e8          	mov    rcx,QWORD PTR [rbp-0x18]
    2847:	48 89 ce             	mov    rsi,rcx
    284a:	89 c7                	mov    edi,eax
    284c:	e8 d8 f1 ff ff       	call   1a29 <AddRoundKey>
    2851:	80 7d ff 00          	cmp    BYTE PTR [rbp-0x1],0x0
    2855:	74 12                	je     2869 <InvCipher+0x77>
    2857:	48 8b 45 e8          	mov    rax,QWORD PTR [rbp-0x18]
    285b:	48 89 c7             	mov    rdi,rax
    285e:	e8 d6 f5 ff ff       	call   1e39 <InvMixColumns>
    2863:	80 6d ff 01          	sub    BYTE PTR [rbp-0x1],0x1
    2867:	eb ba                	jmp    2823 <InvCipher+0x31>
    2869:	90                   	nop
    286a:	90                   	nop
    286b:	c9                   	leave  
    286c:	c3                   	ret    

000000000000286d <AES_ECB_encrypt>:
    286d:	f3 0f 1e fa          	endbr64 
    2871:	55                   	push   rbp
    2872:	48 89 e5             	mov    rbp,rsp
    2875:	48 83 ec 10          	sub    rsp,0x10
    2879:	48 89 7d f8          	mov    QWORD PTR [rbp-0x8],rdi
    287d:	48 89 75 f0          	mov    QWORD PTR [rbp-0x10],rsi
    2881:	48 8b 55 f8          	mov    rdx,QWORD PTR [rbp-0x8]
    2885:	48 8b 45 f0          	mov    rax,QWORD PTR [rbp-0x10]
    2889:	48 89 d6             	mov    rsi,rdx
    288c:	48 89 c7             	mov    rdi,rax
    288f:	e8 ce fe ff ff       	call   2762 <Cipher>
    2894:	90                   	nop
    2895:	c9                   	leave  
    2896:	c3                   	ret    

0000000000002897 <AES_ECB_decrypt>:
    2897:	f3 0f 1e fa          	endbr64 
    289b:	55                   	push   rbp
    289c:	48 89 e5             	mov    rbp,rsp
    289f:	48 83 ec 10          	sub    rsp,0x10
    28a3:	48 89 7d f8          	mov    QWORD PTR [rbp-0x8],rdi
    28a7:	48 89 75 f0          	mov    QWORD PTR [rbp-0x10],rsi
    28ab:	48 8b 55 f8          	mov    rdx,QWORD PTR [rbp-0x8]
    28af:	48 8b 45 f0          	mov    rax,QWORD PTR [rbp-0x10]
    28b3:	48 89 d6             	mov    rsi,rdx
    28b6:	48 89 c7             	mov    rdi,rax
    28b9:	e8 34 ff ff ff       	call   27f2 <InvCipher>
    28be:	90                   	nop
    28bf:	c9                   	leave  
    28c0:	c3                   	ret    

00000000000028c1 <XorWithIv>:
    28c1:	f3 0f 1e fa          	endbr64 
    28c5:	55                   	push   rbp
    28c6:	48 89 e5             	mov    rbp,rsp
    28c9:	48 89 7d e8          	mov    QWORD PTR [rbp-0x18],rdi
    28cd:	48 89 75 e0          	mov    QWORD PTR [rbp-0x20],rsi
    28d1:	c6 45 ff 00          	mov    BYTE PTR [rbp-0x1],0x0
    28d5:	eb 2f                	jmp    2906 <XorWithIv+0x45>
    28d7:	0f b6 55 ff          	movzx  edx,BYTE PTR [rbp-0x1]
    28db:	48 8b 45 e8          	mov    rax,QWORD PTR [rbp-0x18]
    28df:	48 01 d0             	add    rax,rdx
    28e2:	0f b6 08             	movzx  ecx,BYTE PTR [rax]
    28e5:	0f b6 55 ff          	movzx  edx,BYTE PTR [rbp-0x1]
    28e9:	48 8b 45 e0          	mov    rax,QWORD PTR [rbp-0x20]
    28ed:	48 01 d0             	add    rax,rdx
    28f0:	0f b6 10             	movzx  edx,BYTE PTR [rax]
    28f3:	0f b6 75 ff          	movzx  esi,BYTE PTR [rbp-0x1]
    28f7:	48 8b 45 e8          	mov    rax,QWORD PTR [rbp-0x18]
    28fb:	48 01 f0             	add    rax,rsi
    28fe:	31 ca                	xor    edx,ecx
    2900:	88 10                	mov    BYTE PTR [rax],dl
    2902:	80 45 ff 01          	add    BYTE PTR [rbp-0x1],0x1
    2906:	80 7d ff 0f          	cmp    BYTE PTR [rbp-0x1],0xf
    290a:	76 cb                	jbe    28d7 <XorWithIv+0x16>
    290c:	90                   	nop
    290d:	90                   	nop
    290e:	5d                   	pop    rbp
    290f:	c3                   	ret    

0000000000002910 <AES_CBC_encrypt_buffer>:
    2910:	f3 0f 1e fa          	endbr64 
    2914:	55                   	push   rbp
    2915:	48 89 e5             	mov    rbp,rsp
    2918:	48 83 ec 28          	sub    rsp,0x28
    291c:	48 89 7d e8          	mov    QWORD PTR [rbp-0x18],rdi
    2920:	48 89 75 e0          	mov    QWORD PTR [rbp-0x20],rsi
    2924:	48 89 55 d8          	mov    QWORD PTR [rbp-0x28],rdx
    2928:	48 8b 45 e8          	mov    rax,QWORD PTR [rbp-0x18]
    292c:	48 05 f0 00 00 00    	add    rax,0xf0
    2932:	48 89 45 f8          	mov    QWORD PTR [rbp-0x8],rax
    2936:	48 c7 45 f0 00 00 00 	mov    QWORD PTR [rbp-0x10],0x0
    293d:	00 
    293e:	eb 38                	jmp    2978 <AES_CBC_encrypt_buffer+0x68>
    2940:	48 8b 55 f8          	mov    rdx,QWORD PTR [rbp-0x8]
    2944:	48 8b 45 e0          	mov    rax,QWORD PTR [rbp-0x20]
    2948:	48 89 d6             	mov    rsi,rdx
    294b:	48 89 c7             	mov    rdi,rax
    294e:	e8 6e ff ff ff       	call   28c1 <XorWithIv>
    2953:	48 8b 55 e8          	mov    rdx,QWORD PTR [rbp-0x18]
    2957:	48 8b 45 e0          	mov    rax,QWORD PTR [rbp-0x20]
    295b:	48 89 d6             	mov    rsi,rdx
    295e:	48 89 c7             	mov    rdi,rax
    2961:	e8 fc fd ff ff       	call   2762 <Cipher>
    2966:	48 8b 45 e0          	mov    rax,QWORD PTR [rbp-0x20]
    296a:	48 89 45 f8          	mov    QWORD PTR [rbp-0x8],rax
    296e:	48 83 45 e0 10       	add    QWORD PTR [rbp-0x20],0x10
    2973:	48 83 45 f0 10       	add    QWORD PTR [rbp-0x10],0x10
    2978:	48 8b 45 f0          	mov    rax,QWORD PTR [rbp-0x10]
    297c:	48 3b 45 d8          	cmp    rax,QWORD PTR [rbp-0x28]
    2980:	72 be                	jb     2940 <AES_CBC_encrypt_buffer+0x30>
    2982:	48 8b 45 e8          	mov    rax,QWORD PTR [rbp-0x18]
    2986:	48 8d 88 f0 00 00 00 	lea    rcx,[rax+0xf0]
    298d:	48 8b 45 f8          	mov    rax,QWORD PTR [rbp-0x8]
    2991:	48 8b 50 08          	mov    rdx,QWORD PTR [rax+0x8]
    2995:	48 8b 00             	mov    rax,QWORD PTR [rax]
    2998:	48 89 01             	mov    QWORD PTR [rcx],rax
    299b:	48 89 51 08          	mov    QWORD PTR [rcx+0x8],rdx
    299f:	90                   	nop
    29a0:	c9                   	leave  
    29a1:	c3                   	ret    

00000000000029a2 <AES_CBC_decrypt_buffer>:
    29a2:	f3 0f 1e fa          	endbr64 
    29a6:	55                   	push   rbp
    29a7:	48 89 e5             	mov    rbp,rsp
    29aa:	48 83 ec 50          	sub    rsp,0x50
    29ae:	48 89 7d c8          	mov    QWORD PTR [rbp-0x38],rdi
    29b2:	48 89 75 c0          	mov    QWORD PTR [rbp-0x40],rsi
    29b6:	48 89 55 b8          	mov    QWORD PTR [rbp-0x48],rdx
    29ba:	64 48 8b 04 25 28 00 	mov    rax,QWORD PTR fs:0x28
    29c1:	00 00 
    29c3:	48 89 45 f8          	mov    QWORD PTR [rbp-0x8],rax
    29c7:	31 c0                	xor    eax,eax
    29c9:	48 c7 45 d8 00 00 00 	mov    QWORD PTR [rbp-0x28],0x0
    29d0:	00 
    29d1:	eb 64                	jmp    2a37 <AES_CBC_decrypt_buffer+0x95>
    29d3:	48 8b 45 c0          	mov    rax,QWORD PTR [rbp-0x40]
    29d7:	48 8b 50 08          	mov    rdx,QWORD PTR [rax+0x8]
    29db:	48 8b 00             	mov    rax,QWORD PTR [rax]
    29de:	48 89 45 e0          	mov    QWORD PTR [rbp-0x20],rax
    29e2:	48 89 55 e8          	mov    QWORD PTR [rbp-0x18],rdx
    29e6:	48 8b 55 c8          	mov    rdx,QWORD PTR [rbp-0x38]
    29ea:	48 8b 45 c0          	mov    rax,QWORD PTR [rbp-0x40]
    29ee:	48 89 d6             	mov    rsi,rdx
    29f1:	48 89 c7             	mov    rdi,rax
    29f4:	e8 f9 fd ff ff       	call   27f2 <InvCipher>
    29f9:	48 8b 45 c8          	mov    rax,QWORD PTR [rbp-0x38]
    29fd:	48 8d 90 f0 00 00 00 	lea    rdx,[rax+0xf0]
    2a04:	48 8b 45 c0          	mov    rax,QWORD PTR [rbp-0x40]
    2a08:	48 89 d6             	mov    rsi,rdx
    2a0b:	48 89 c7             	mov    rdi,rax
    2a0e:	e8 ae fe ff ff       	call   28c1 <XorWithIv>
    2a13:	48 8b 45 c8          	mov    rax,QWORD PTR [rbp-0x38]
    2a17:	48 8d 88 f0 00 00 00 	lea    rcx,[rax+0xf0]
    2a1e:	48 8b 45 e0          	mov    rax,QWORD PTR [rbp-0x20]
    2a22:	48 8b 55 e8          	mov    rdx,QWORD PTR [rbp-0x18]
    2a26:	48 89 01             	mov    QWORD PTR [rcx],rax
    2a29:	48 89 51 08          	mov    QWORD PTR [rcx+0x8],rdx
    2a2d:	48 83 45 c0 10       	add    QWORD PTR [rbp-0x40],0x10
    2a32:	48 83 45 d8 10       	add    QWORD PTR [rbp-0x28],0x10
    2a37:	48 8b 45 d8          	mov    rax,QWORD PTR [rbp-0x28]
    2a3b:	48 3b 45 b8          	cmp    rax,QWORD PTR [rbp-0x48]
    2a3f:	72 92                	jb     29d3 <AES_CBC_decrypt_buffer+0x31>
    2a41:	90                   	nop
    2a42:	48 8b 45 f8          	mov    rax,QWORD PTR [rbp-0x8]
    2a46:	64 48 2b 04 25 28 00 	sub    rax,QWORD PTR fs:0x28
    2a4d:	00 00 
    2a4f:	74 05                	je     2a56 <AES_CBC_decrypt_buffer+0xb4>
    2a51:	e8 ca e6 ff ff       	call   1120 <__stack_chk_fail@plt>
    2a56:	c9                   	leave  
    2a57:	c3                   	ret    

0000000000002a58 <AES_CTR_xcrypt_buffer>:
    2a58:	f3 0f 1e fa          	endbr64 
    2a5c:	55                   	push   rbp
    2a5d:	48 89 e5             	mov    rbp,rsp
    2a60:	48 83 ec 50          	sub    rsp,0x50
    2a64:	48 89 7d c8          	mov    QWORD PTR [rbp-0x38],rdi
    2a68:	48 89 75 c0          	mov    QWORD PTR [rbp-0x40],rsi
    2a6c:	48 89 55 b8          	mov    QWORD PTR [rbp-0x48],rdx
    2a70:	64 48 8b 04 25 28 00 	mov    rax,QWORD PTR fs:0x28
    2a77:	00 00 
    2a79:	48 89 45 f8          	mov    QWORD PTR [rbp-0x8],rax
    2a7d:	31 c0                	xor    eax,eax
    2a7f:	48 c7 45 d8 00 00 00 	mov    QWORD PTR [rbp-0x28],0x0
    2a86:	00 
    2a87:	c7 45 d4 10 00 00 00 	mov    DWORD PTR [rbp-0x2c],0x10
    2a8e:	e9 ce 00 00 00       	jmp    2b61 <AES_CTR_xcrypt_buffer+0x109>
    2a93:	83 7d d4 10          	cmp    DWORD PTR [rbp-0x2c],0x10
    2a97:	0f 85 94 00 00 00    	jne    2b31 <AES_CTR_xcrypt_buffer+0xd9>
    2a9d:	48 8b 45 c8          	mov    rax,QWORD PTR [rbp-0x38]
    2aa1:	48 05 f0 00 00 00    	add    rax,0xf0
    2aa7:	48 8b 50 08          	mov    rdx,QWORD PTR [rax+0x8]
    2aab:	48 8b 00             	mov    rax,QWORD PTR [rax]
    2aae:	48 89 45 e0          	mov    QWORD PTR [rbp-0x20],rax
    2ab2:	48 89 55 e8          	mov    QWORD PTR [rbp-0x18],rdx
    2ab6:	48 8b 55 c8          	mov    rdx,QWORD PTR [rbp-0x38]
    2aba:	48 8d 45 e0          	lea    rax,[rbp-0x20]
    2abe:	48 89 d6             	mov    rsi,rdx
    2ac1:	48 89 c7             	mov    rdi,rax
    2ac4:	e8 99 fc ff ff       	call   2762 <Cipher>
    2ac9:	c7 45 d4 0f 00 00 00 	mov    DWORD PTR [rbp-0x2c],0xf
    2ad0:	eb 52                	jmp    2b24 <AES_CTR_xcrypt_buffer+0xcc>
    2ad2:	48 8b 55 c8          	mov    rdx,QWORD PTR [rbp-0x38]
    2ad6:	8b 45 d4             	mov    eax,DWORD PTR [rbp-0x2c]
    2ad9:	48 98                	cdqe   
    2adb:	0f b6 84 02 f0 00 00 	movzx  eax,BYTE PTR [rdx+rax*1+0xf0]
    2ae2:	00 
    2ae3:	3c ff                	cmp    al,0xff
    2ae5:	75 13                	jne    2afa <AES_CTR_xcrypt_buffer+0xa2>
    2ae7:	48 8b 55 c8          	mov    rdx,QWORD PTR [rbp-0x38]
    2aeb:	8b 45 d4             	mov    eax,DWORD PTR [rbp-0x2c]
    2aee:	48 98                	cdqe   
    2af0:	c6 84 02 f0 00 00 00 	mov    BYTE PTR [rdx+rax*1+0xf0],0x0
    2af7:	00 
    2af8:	eb 26                	jmp    2b20 <AES_CTR_xcrypt_buffer+0xc8>
    2afa:	48 8b 55 c8          	mov    rdx,QWORD PTR [rbp-0x38]
    2afe:	8b 45 d4             	mov    eax,DWORD PTR [rbp-0x2c]
    2b01:	48 98                	cdqe   
    2b03:	0f b6 84 02 f0 00 00 	movzx  eax,BYTE PTR [rdx+rax*1+0xf0]
    2b0a:	00 
    2b0b:	8d 48 01             	lea    ecx,[rax+0x1]
    2b0e:	48 8b 55 c8          	mov    rdx,QWORD PTR [rbp-0x38]
    2b12:	8b 45 d4             	mov    eax,DWORD PTR [rbp-0x2c]
    2b15:	48 98                	cdqe   
    2b17:	88 8c 02 f0 00 00 00 	mov    BYTE PTR [rdx+rax*1+0xf0],cl
    2b1e:	eb 0a                	jmp    2b2a <AES_CTR_xcrypt_buffer+0xd2>
    2b20:	83 6d d4 01          	sub    DWORD PTR [rbp-0x2c],0x1
    2b24:	83 7d d4 00          	cmp    DWORD PTR [rbp-0x2c],0x0
    2b28:	79 a8                	jns    2ad2 <AES_CTR_xcrypt_buffer+0x7a>
    2b2a:	c7 45 d4 00 00 00 00 	mov    DWORD PTR [rbp-0x2c],0x0
    2b31:	48 8b 55 c0          	mov    rdx,QWORD PTR [rbp-0x40]
    2b35:	48 8b 45 d8          	mov    rax,QWORD PTR [rbp-0x28]
    2b39:	48 01 d0             	add    rax,rdx
    2b3c:	0f b6 08             	movzx  ecx,BYTE PTR [rax]
    2b3f:	8b 45 d4             	mov    eax,DWORD PTR [rbp-0x2c]
    2b42:	48 98                	cdqe   
    2b44:	0f b6 54 05 e0       	movzx  edx,BYTE PTR [rbp+rax*1-0x20]
    2b49:	48 8b 75 c0          	mov    rsi,QWORD PTR [rbp-0x40]
    2b4d:	48 8b 45 d8          	mov    rax,QWORD PTR [rbp-0x28]
    2b51:	48 01 f0             	add    rax,rsi
    2b54:	31 ca                	xor    edx,ecx
    2b56:	88 10                	mov    BYTE PTR [rax],dl
    2b58:	48 83 45 d8 01       	add    QWORD PTR [rbp-0x28],0x1
    2b5d:	83 45 d4 01          	add    DWORD PTR [rbp-0x2c],0x1
    2b61:	48 8b 45 d8          	mov    rax,QWORD PTR [rbp-0x28]
    2b65:	48 3b 45 b8          	cmp    rax,QWORD PTR [rbp-0x48]
    2b69:	0f 82 24 ff ff ff    	jb     2a93 <AES_CTR_xcrypt_buffer+0x3b>
    2b6f:	90                   	nop
    2b70:	48 8b 45 f8          	mov    rax,QWORD PTR [rbp-0x8]
    2b74:	64 48 2b 04 25 28 00 	sub    rax,QWORD PTR fs:0x28
    2b7b:	00 00 
    2b7d:	74 05                	je     2b84 <AES_CTR_xcrypt_buffer+0x12c>
    2b7f:	e8 9c e5 ff ff       	call   1120 <__stack_chk_fail@plt>
    2b84:	c9                   	leave  
    2b85:	c3                   	ret    

Disassembly of section .fini:

0000000000002b88 <_fini>:
    2b88:	f3 0f 1e fa          	endbr64 
    2b8c:	48 83 ec 08          	sub    rsp,0x8
    2b90:	48 83 c4 08          	add    rsp,0x8
    2b94:	c3                   	ret    
